Archive member included because of file (symbol)

/work/opensource/personal/microcontroller/arduino/ArduinoLibraries/ArduinoAccelerometerDriver/Release/libArduinoAccelerometerSensor.a(AccelerometerMMA8451.o)
                              ./main.o (_ZN20AccelerometerMMA8451C1Eb)
/work/opensource/personal/microcontroller/arduino/ArduinoLibraries/ArduinoMessagingProtocol/Release/libArduinoMessagingProtocol.a(RemoteDevice.o)
                              ./main.o (_ZN12RemoteDeviceD1Ev)
/work/opensource/personal/microcontroller/arduino/ArduinoLibraries/ArduinoMessagingProtocol/Release/libArduinoMessagingProtocol.a(Notifier.o)
                              /work/opensource/personal/microcontroller/arduino/ArduinoLibraries/ArduinoMessagingProtocol/Release/libArduinoMessagingProtocol.a(RemoteDevice.o) (_ZN8Notifier17notifyTransmitingEv)
/work/opensource/personal/microcontroller/arduino/ArduinoLibraries/ArduinoMessagingProtocol/Release/libArduinoMessagingProtocol.a(MessageParser.o)
                              ./main.o (_ZN13MessageParserC1EPht)
/work/opensource/personal/microcontroller/arduino/ArduinoLibraries/ArduinoMessagingProtocol/Release/libArduinoMessagingProtocol.a(Message.o)
                              ./main.o (_ZN7MessageC1EPh)
/work/opensource/personal/microcontroller/arduino/ArduinoLibraries/ArduinoIO/Release/libArduinoIO.a(SoftwareSerialOutputStream.o)
                              ./main.o (_ZN26SoftwareSerialOutputStreamC1EP14SoftwareSerial)
/work/opensource/personal/microcontroller/arduino/ArduinoLibraries/ArduinoIO/Release/libArduinoIO.a(SoftwareSerialInputStream.o)
                              ./main.o (_ZN25SoftwareSerialInputStreamC1EP14SoftwareSerial)
/work/opensource/personal/microcontroller/arduino/ArduinoLibraries/ArduinoIO/Release/libArduinoIO.a(OutputStream.o)
                              /work/opensource/personal/microcontroller/arduino/ArduinoLibraries/ArduinoIO/Release/libArduinoIO.a(SoftwareSerialOutputStream.o) (_ZN12OutputStream5writeEPhi)
/work/opensource/personal/microcontroller/arduino/ArduinoLibraries/ArduinoIO/Release/libArduinoIO.a(InputStream.o)
                              /work/opensource/personal/microcontroller/arduino/ArduinoLibraries/ArduinoIO/Release/libArduinoIO.a(SoftwareSerialInputStream.o) (_ZN11InputStream9availableEv)
/work/opensource/personal/microcontroller/arduino/ArduinoLibraries/ArduinoIO/Release/libArduinoIO.a(ExternalEepromOutputStream.o)
                              ./main.o (_ZN26ExternalEepromOutputStreamC1EP14ExternalEeprom)
/work/opensource/personal/microcontroller/arduino/ArduinoLibraries/ArduinoIO/Release/libArduinoIO.a(ExternalEepromInputStream.o)
                              ./main.o (_ZN25ExternalEepromInputStreamC1EP14ExternalEeprom)
/work/opensource/personal/microcontroller/arduino/ArduinoLibraries/ArduinoIO/Release/libArduinoIO.a(DataOutputStream.o)
                              ./main.o (_ZN16DataOutputStreamC1EP12OutputStream)
/work/opensource/personal/microcontroller/arduino/ArduinoLibraries/ArduinoIO/Release/libArduinoIO.a(DataInputStream.o)
                              ./main.o (_ZN15DataInputStream16readUnsignedCharEv)
/work/opensource/personal/microcontroller/arduino/ArduinoLibraries/ArduinoIO/Release/libArduinoIO.a(ByteArrayOutputStream.o)
                              ./main.o (_ZTV21ByteArrayOutputStream)
/work/opensource/personal/microcontroller/arduino/ArduinoLibraries/ArduinoIO/Release/libArduinoIO.a(ByteArrayInputStream.o)
                              ./main.o (_ZN20ByteArrayInputStream4seekEj)
/work/opensource/personal/microcontroller/arduino/ArduinoLibraries/ArduinoMemoryDriver/Release/libArduinoMemoryDriver.a(ExternalEeprom.o)
                              ./main.o (_ZN14ExternalEeprom5writeEjh)
/work/opensource/personal/microcontroller/arduino/ArduinoLibraries/ArduinoMemoryDriver/Release/libArduinoMemoryDriver.a(External24cl256Eeprom.o)
                              ./main.o (_ZN21External24cl256EepromC1Eh)
/work/opensource/personal/microcontroller/arduino/ArduinoLibraries/ArduinoDevice/Release/libArduinoDevice.a(RegisterBasedWiredDevice.o)
                              /work/opensource/personal/microcontroller/arduino/ArduinoLibraries/ArduinoAccelerometerDriver/Release/libArduinoAccelerometerSensor.a(AccelerometerMMA8451.o) (_ZN24RegisterBasedWiredDeviceC2Eh)
/work/opensource/personal/microcontroller/arduino/ArduinoLibraries/ArduinoDevice/Release/libArduinoDevice.a(EepromBasedWiredDevice.o)
                              ./main.o (_ZTV22EepromBasedWiredDevice)
/work/opensource/personal/microcontroller/arduino/ArduinoLibraries/ArduinoDevice/Release/libArduinoDevice.a(WiredDevice.o)
                              /work/opensource/personal/microcontroller/arduino/ArduinoLibraries/ArduinoDevice/Release/libArduinoDevice.a(RegisterBasedWiredDevice.o) (_ZN11WiredDeviceC2Eh)
/work/opensource/personal/microcontroller/arduino/ArduinoLibraries/ArduinoCore/Release/libArduinoCore.a(Wire.o)
                              /work/opensource/personal/microcontroller/arduino/ArduinoLibraries/ArduinoDevice/Release/libArduinoDevice.a(RegisterBasedWiredDevice.o) (_ZN7TwoWire9availableEv)
/work/opensource/personal/microcontroller/arduino/ArduinoLibraries/ArduinoCore/Release/libArduinoCore.a(SoftwareSerial.o)
                              ./main.o (_ZN14SoftwareSerialD1Ev)
/work/opensource/personal/microcontroller/arduino/ArduinoLibraries/ArduinoCore/Release/libArduinoCore.a(HardwareSerial.o)
                              ./main.o (_ZN14HardwareSerial5beginEmh)
/work/opensource/personal/microcontroller/arduino/ArduinoLibraries/ArduinoCore/Release/libArduinoCore.a(HardwareSerial0.o)
                              ./main.o (Serial)
/work/opensource/personal/microcontroller/arduino/ArduinoLibraries/ArduinoCore/Release/libArduinoCore.a(Print.o)
                              /work/opensource/personal/microcontroller/arduino/ArduinoLibraries/ArduinoCore/Release/libArduinoCore.a(Wire.o) (_ZN5Print5writeEPKhj)
/work/opensource/personal/microcontroller/arduino/ArduinoLibraries/ArduinoCore/Release/libArduinoCore.a(Stream.o)
                              /work/opensource/personal/microcontroller/arduino/ArduinoLibraries/ArduinoIO/Release/libArduinoIO.a(SoftwareSerialInputStream.o) (_ZN6Stream9readBytesEPcj)
/work/opensource/personal/microcontroller/arduino/ArduinoLibraries/ArduinoCore/Release/libArduinoCore.a(WInterrupts.o)
                              ./main.o (attachInterrupt)
/work/opensource/personal/microcontroller/arduino/ArduinoLibraries/ArduinoCore/Release/libArduinoCore.a(WString.o)
                              /work/opensource/personal/microcontroller/arduino/ArduinoLibraries/ArduinoCore/Release/libArduinoCore.a(Stream.o) (_ZN6StringC1EPKc)
/work/opensource/personal/microcontroller/arduino/ArduinoLibraries/ArduinoCore/Release/libArduinoCore.a(abi.o)
                              /work/opensource/personal/microcontroller/arduino/ArduinoLibraries/ArduinoAccelerometerDriver/Release/libArduinoAccelerometerSensor.a(AccelerometerMMA8451.o) (__cxa_pure_virtual)
/work/opensource/personal/microcontroller/arduino/ArduinoLibraries/ArduinoCore/Release/libArduinoCore.a(new.o)
                              ./main.o (_ZdlPv)
/work/opensource/personal/microcontroller/arduino/ArduinoLibraries/ArduinoCore/Release/libArduinoCore.a(wiring.o)
                              /work/opensource/personal/microcontroller/arduino/ArduinoLibraries/ArduinoMessagingProtocol/Release/libArduinoMessagingProtocol.a(RemoteDevice.o) (millis)
/work/opensource/personal/microcontroller/arduino/ArduinoLibraries/ArduinoCore/Release/libArduinoCore.a(wiring_digital.o)
                              ./main.o (pinMode)
/work/opensource/personal/microcontroller/arduino/ArduinoLibraries/ArduinoCore/Release/libArduinoCore.a(twi.o)
                              /work/opensource/personal/microcontroller/arduino/ArduinoLibraries/ArduinoCore/Release/libArduinoCore.a(Wire.o) (twi_init)
/work/opensource/personal/microcontroller/arduino/ArduinoLibraries/ArduinoCore/Release/libArduinoCore.a(hooks.o)
                              /work/opensource/personal/microcontroller/arduino/ArduinoLibraries/ArduinoCore/Release/libArduinoCore.a(wiring.o) (yield)
/usr/lib/gcc/avr/4.8.1/avr5/libgcc.a(_udivmodhi4.o)
                              /work/opensource/personal/microcontroller/arduino/ArduinoLibraries/ArduinoMemoryDriver/Release/libArduinoMemoryDriver.a(ExternalEeprom.o) (__udivmodhi4)
/usr/lib/gcc/avr/4.8.1/avr5/libgcc.a(_divmodhi4.o)
                              /work/opensource/personal/microcontroller/arduino/ArduinoLibraries/ArduinoCore/Release/libArduinoCore.a(SoftwareSerial.o) (__divmodhi4)
/usr/lib/gcc/avr/4.8.1/avr5/libgcc.a(_udivmodsi4.o)
                              /work/opensource/personal/microcontroller/arduino/ArduinoLibraries/ArduinoCore/Release/libArduinoCore.a(SoftwareSerial.o) (__udivmodsi4)
/usr/lib/gcc/avr/4.8.1/avr5/libgcc.a(_exit.o)
                              /usr/lib/gcc/avr/4.8.1/../../../avr/lib/avr5/crtm328p.o (exit)
/usr/lib/gcc/avr/4.8.1/avr5/libgcc.a(_tablejump.o)
                              /work/opensource/personal/microcontroller/arduino/ArduinoLibraries/ArduinoMessagingProtocol/Release/libArduinoMessagingProtocol.a(MessageParser.o) (__tablejump2__)
/usr/lib/gcc/avr/4.8.1/avr5/libgcc.a(_copy_data.o)
                              ./main.o (__do_copy_data)
/usr/lib/gcc/avr/4.8.1/avr5/libgcc.a(_clear_bss.o)
                              ./main.o (__do_clear_bss)
/usr/lib/gcc/avr/4.8.1/avr5/libgcc.a(_ctors.o)
                              ./main.o (__do_global_ctors)
/usr/lib/gcc/avr/4.8.1/avr5/libgcc.a(_dtors.o)
                              ./main.o (__do_global_dtors)
/usr/lib/gcc/avr/4.8.1/avr5/libgcc.a(_muluhisi3.o)
                              /work/opensource/personal/microcontroller/arduino/ArduinoLibraries/ArduinoCore/Release/libArduinoCore.a(Stream.o) (__muluhisi3)
/usr/lib/gcc/avr/4.8.1/avr5/libgcc.a(_umulhisi3.o)
                              /usr/lib/gcc/avr/4.8.1/avr5/libgcc.a(_muluhisi3.o) (__umulhisi3)
/usr/lib/gcc/avr/4.8.1/../../../avr/lib/avr5/libm.a(addsf3.o)
                              /work/opensource/personal/microcontroller/arduino/ArduinoLibraries/ArduinoCore/Release/libArduinoCore.a(Print.o) (__subsf3)
/usr/lib/gcc/avr/4.8.1/../../../avr/lib/avr5/libm.a(addsf3x.o)
                              /usr/lib/gcc/avr/4.8.1/../../../avr/lib/avr5/libm.a(addsf3.o) (__addsf3x)
/usr/lib/gcc/avr/4.8.1/../../../avr/lib/avr5/libm.a(cmpsf2.o)
                              /work/opensource/personal/microcontroller/arduino/ArduinoLibraries/ArduinoCore/Release/libArduinoCore.a(Print.o) (__ltsf2)
/usr/lib/gcc/avr/4.8.1/../../../avr/lib/avr5/libm.a(divsf3.o)
                              /work/opensource/personal/microcontroller/arduino/ArduinoLibraries/ArduinoAccelerometerDriver/Release/libArduinoAccelerometerSensor.a(AccelerometerMMA8451.o) (__divsf3)
/usr/lib/gcc/avr/4.8.1/../../../avr/lib/avr5/libm.a(divsf3x.o)
                              /usr/lib/gcc/avr/4.8.1/../../../avr/lib/avr5/libm.a(divsf3.o) (__divsf3x)
/usr/lib/gcc/avr/4.8.1/../../../avr/lib/avr5/libm.a(fixsfsi.o)
                              /work/opensource/personal/microcontroller/arduino/ArduinoLibraries/ArduinoCore/Release/libArduinoCore.a(Print.o) (__fixsfsi)
/usr/lib/gcc/avr/4.8.1/../../../avr/lib/avr5/libm.a(fixunssfsi.o)
                              /work/opensource/personal/microcontroller/arduino/ArduinoLibraries/ArduinoCore/Release/libArduinoCore.a(Print.o) (__fixunssfsi)
/usr/lib/gcc/avr/4.8.1/../../../avr/lib/avr5/libm.a(floatsisf.o)
                              /work/opensource/personal/microcontroller/arduino/ArduinoLibraries/ArduinoCore/Release/libArduinoCore.a(Print.o) (__floatunsisf)
/usr/lib/gcc/avr/4.8.1/../../../avr/lib/avr5/libm.a(fp_cmp.o)
                              /usr/lib/gcc/avr/4.8.1/../../../avr/lib/avr5/libm.a(cmpsf2.o) (__fp_cmp)
/usr/lib/gcc/avr/4.8.1/../../../avr/lib/avr5/libm.a(fp_inf.o)
                              /usr/lib/gcc/avr/4.8.1/../../../avr/lib/avr5/libm.a(addsf3x.o) (__fp_inf)
/usr/lib/gcc/avr/4.8.1/../../../avr/lib/avr5/libm.a(fp_nan.o)
                              /usr/lib/gcc/avr/4.8.1/../../../avr/lib/avr5/libm.a(addsf3x.o) (__fp_nan)
/usr/lib/gcc/avr/4.8.1/../../../avr/lib/avr5/libm.a(fp_pscA.o)
                              /usr/lib/gcc/avr/4.8.1/../../../avr/lib/avr5/libm.a(addsf3x.o) (__fp_pscA)
/usr/lib/gcc/avr/4.8.1/../../../avr/lib/avr5/libm.a(fp_pscB.o)
                              /usr/lib/gcc/avr/4.8.1/../../../avr/lib/avr5/libm.a(addsf3x.o) (__fp_pscB)
/usr/lib/gcc/avr/4.8.1/../../../avr/lib/avr5/libm.a(fp_round.o)
                              /usr/lib/gcc/avr/4.8.1/../../../avr/lib/avr5/libm.a(addsf3.o) (__fp_round)
/usr/lib/gcc/avr/4.8.1/../../../avr/lib/avr5/libm.a(fp_split3.o)
                              /usr/lib/gcc/avr/4.8.1/../../../avr/lib/avr5/libm.a(addsf3x.o) (__fp_split3)
/usr/lib/gcc/avr/4.8.1/../../../avr/lib/avr5/libm.a(fp_zero.o)
                              /usr/lib/gcc/avr/4.8.1/../../../avr/lib/avr5/libm.a(addsf3x.o) (__fp_zero)
/usr/lib/gcc/avr/4.8.1/../../../avr/lib/avr5/libm.a(gesf2.o)
                              /work/opensource/personal/microcontroller/arduino/ArduinoLibraries/ArduinoCore/Release/libArduinoCore.a(Print.o) (__gtsf2)
/usr/lib/gcc/avr/4.8.1/../../../avr/lib/avr5/libm.a(mulsf3.o)
                              /work/opensource/personal/microcontroller/arduino/ArduinoLibraries/ArduinoCore/Release/libArduinoCore.a(Print.o) (__mulsf3)
/usr/lib/gcc/avr/4.8.1/../../../avr/lib/avr5/libm.a(mulsf3x.o)
                              /usr/lib/gcc/avr/4.8.1/../../../avr/lib/avr5/libm.a(mulsf3.o) (__mulsf3x)
/usr/lib/gcc/avr/4.8.1/../../../avr/lib/avr5/libm.a(unordsf2.o)
                              /work/opensource/personal/microcontroller/arduino/ArduinoLibraries/ArduinoCore/Release/libArduinoCore.a(Print.o) (__unordsf2)
/usr/lib/gcc/avr/4.8.1/../../../avr/lib/avr5/libc.a(dtostrf.o)
                              /work/opensource/personal/microcontroller/arduino/ArduinoLibraries/ArduinoCore/Release/libArduinoCore.a(WString.o) (dtostrf)
/usr/lib/gcc/avr/4.8.1/../../../avr/lib/avr5/libc.a(malloc.o)
                              /work/opensource/personal/microcontroller/arduino/ArduinoLibraries/ArduinoCore/Release/libArduinoCore.a(new.o) (malloc)
/usr/lib/gcc/avr/4.8.1/../../../avr/lib/avr5/libc.a(realloc.o)
                              /work/opensource/personal/microcontroller/arduino/ArduinoLibraries/ArduinoCore/Release/libArduinoCore.a(WString.o) (realloc)
/usr/lib/gcc/avr/4.8.1/../../../avr/lib/avr5/libc.a(abort.o)
                              /work/opensource/personal/microcontroller/arduino/ArduinoLibraries/ArduinoCore/Release/libArduinoCore.a(abi.o) (abort)
/usr/lib/gcc/avr/4.8.1/../../../avr/lib/avr5/libc.a(atof.o)
                              /work/opensource/personal/microcontroller/arduino/ArduinoLibraries/ArduinoCore/Release/libArduinoCore.a(WString.o) (atof)
/usr/lib/gcc/avr/4.8.1/../../../avr/lib/avr5/libc.a(atol.o)
                              /work/opensource/personal/microcontroller/arduino/ArduinoLibraries/ArduinoCore/Release/libArduinoCore.a(WString.o) (atol)
/usr/lib/gcc/avr/4.8.1/../../../avr/lib/avr5/libc.a(isspace.o)
                              /work/opensource/personal/microcontroller/arduino/ArduinoLibraries/ArduinoCore/Release/libArduinoCore.a(WString.o) (isspace)
/usr/lib/gcc/avr/4.8.1/../../../avr/lib/avr5/libc.a(tolower.o)
                              /work/opensource/personal/microcontroller/arduino/ArduinoLibraries/ArduinoCore/Release/libArduinoCore.a(WString.o) (tolower)
/usr/lib/gcc/avr/4.8.1/../../../avr/lib/avr5/libc.a(toupper.o)
                              /work/opensource/personal/microcontroller/arduino/ArduinoLibraries/ArduinoCore/Release/libArduinoCore.a(WString.o) (toupper)
/usr/lib/gcc/avr/4.8.1/../../../avr/lib/avr5/libc.a(strcpy_P.o)
                              /work/opensource/personal/microcontroller/arduino/ArduinoLibraries/ArduinoCore/Release/libArduinoCore.a(WString.o) (strcpy_P)
/usr/lib/gcc/avr/4.8.1/../../../avr/lib/avr5/libc.a(strlen_P.o)
                              /work/opensource/personal/microcontroller/arduino/ArduinoLibraries/ArduinoCore/Release/libArduinoCore.a(WString.o) (__strlen_P)
/usr/lib/gcc/avr/4.8.1/../../../avr/lib/avr5/libc.a(memcpy.o)
                              /work/opensource/personal/microcontroller/arduino/ArduinoLibraries/ArduinoMessagingProtocol/Release/libArduinoMessagingProtocol.a(MessageParser.o) (memcpy)
/usr/lib/gcc/avr/4.8.1/../../../avr/lib/avr5/libc.a(memmove.o)
                              /work/opensource/personal/microcontroller/arduino/ArduinoLibraries/ArduinoCore/Release/libArduinoCore.a(WString.o) (memmove)
/usr/lib/gcc/avr/4.8.1/../../../avr/lib/avr5/libc.a(strchr.o)
                              /work/opensource/personal/microcontroller/arduino/ArduinoLibraries/ArduinoCore/Release/libArduinoCore.a(WString.o) (strchr)
/usr/lib/gcc/avr/4.8.1/../../../avr/lib/avr5/libc.a(strcmp.o)
                              /work/opensource/personal/microcontroller/arduino/ArduinoLibraries/ArduinoCore/Release/libArduinoCore.a(WString.o) (strcmp)
/usr/lib/gcc/avr/4.8.1/../../../avr/lib/avr5/libc.a(strcpy.o)
                              /work/opensource/personal/microcontroller/arduino/ArduinoLibraries/ArduinoCore/Release/libArduinoCore.a(WString.o) (strcpy)
/usr/lib/gcc/avr/4.8.1/../../../avr/lib/avr5/libc.a(strncmp.o)
                              /work/opensource/personal/microcontroller/arduino/ArduinoLibraries/ArduinoCore/Release/libArduinoCore.a(WString.o) (strncmp)
/usr/lib/gcc/avr/4.8.1/../../../avr/lib/avr5/libc.a(strncpy.o)
                              /work/opensource/personal/microcontroller/arduino/ArduinoLibraries/ArduinoCore/Release/libArduinoCore.a(WString.o) (strncpy)
/usr/lib/gcc/avr/4.8.1/../../../avr/lib/avr5/libc.a(strrchr.o)
                              /work/opensource/personal/microcontroller/arduino/ArduinoLibraries/ArduinoCore/Release/libArduinoCore.a(WString.o) (strrchr)
/usr/lib/gcc/avr/4.8.1/../../../avr/lib/avr5/libc.a(strstr.o)
                              /work/opensource/personal/microcontroller/arduino/ArduinoLibraries/ArduinoCore/Release/libArduinoCore.a(WString.o) (strstr)
/usr/lib/gcc/avr/4.8.1/../../../avr/lib/avr5/libc.a(itoa.o)
                              /work/opensource/personal/microcontroller/arduino/ArduinoLibraries/ArduinoCore/Release/libArduinoCore.a(WString.o) (__itoa)
/usr/lib/gcc/avr/4.8.1/../../../avr/lib/avr5/libc.a(itoa_ncheck.o)
                              /usr/lib/gcc/avr/4.8.1/../../../avr/lib/avr5/libc.a(itoa.o) (__itoa_ncheck)
/usr/lib/gcc/avr/4.8.1/../../../avr/lib/avr5/libc.a(ltoa.o)
                              /work/opensource/personal/microcontroller/arduino/ArduinoLibraries/ArduinoCore/Release/libArduinoCore.a(WString.o) (__ltoa)
/usr/lib/gcc/avr/4.8.1/../../../avr/lib/avr5/libc.a(ltoa_ncheck.o)
                              /usr/lib/gcc/avr/4.8.1/../../../avr/lib/avr5/libc.a(ltoa.o) (__ltoa_ncheck)
/usr/lib/gcc/avr/4.8.1/../../../avr/lib/avr5/libc.a(mulsi10.o)
                              /usr/lib/gcc/avr/4.8.1/../../../avr/lib/avr5/libc.a(atol.o) (__mulsi_const_10)
/usr/lib/gcc/avr/4.8.1/../../../avr/lib/avr5/libc.a(ultoa.o)
                              /work/opensource/personal/microcontroller/arduino/ArduinoLibraries/ArduinoCore/Release/libArduinoCore.a(WString.o) (__ultoa)
/usr/lib/gcc/avr/4.8.1/../../../avr/lib/avr5/libc.a(ultoa_ncheck.o)
                              /usr/lib/gcc/avr/4.8.1/../../../avr/lib/avr5/libc.a(ultoa.o) (__ultoa_ncheck)
/usr/lib/gcc/avr/4.8.1/../../../avr/lib/avr5/libc.a(utoa.o)
                              /work/opensource/personal/microcontroller/arduino/ArduinoLibraries/ArduinoCore/Release/libArduinoCore.a(WString.o) (__utoa)
/usr/lib/gcc/avr/4.8.1/../../../avr/lib/avr5/libc.a(utoa_ncheck.o)
                              /usr/lib/gcc/avr/4.8.1/../../../avr/lib/avr5/libc.a(utoa.o) (__utoa_ncheck)
/usr/lib/gcc/avr/4.8.1/../../../avr/lib/avr5/libc.a(dtoa_prf.o)
                              /usr/lib/gcc/avr/4.8.1/../../../avr/lib/avr5/libc.a(dtostrf.o) (dtoa_prf)
/usr/lib/gcc/avr/4.8.1/../../../avr/lib/avr5/libc.a(strtod.o)
                              /usr/lib/gcc/avr/4.8.1/../../../avr/lib/avr5/libc.a(atof.o) (strtod)
/usr/lib/gcc/avr/4.8.1/../../../avr/lib/avr5/libc.a(ftoa_engine.o)
                              /usr/lib/gcc/avr/4.8.1/../../../avr/lib/avr5/libc.a(dtoa_prf.o) (__ftoa_engine)
/usr/lib/gcc/avr/4.8.1/../../../avr/lib/avr5/libc.a(cty_isfalse.o)
                              /usr/lib/gcc/avr/4.8.1/../../../avr/lib/avr5/libc.a(isspace.o) (__ctype_isfalse)
/usr/lib/gcc/avr/4.8.1/../../../avr/lib/avr5/libc.a(strncasecmp_P.o)
                              /usr/lib/gcc/avr/4.8.1/../../../avr/lib/avr5/libc.a(strtod.o) (strncasecmp_P)
/usr/lib/gcc/avr/4.8.1/../../../avr/lib/avr5/libc.a(strrev.o)
                              /usr/lib/gcc/avr/4.8.1/../../../avr/lib/avr5/libc.a(ultoa_ncheck.o) (strrev)
/usr/lib/gcc/avr/4.8.1/../../../avr/lib/avr5/libc.a(errno.o)
                              /usr/lib/gcc/avr/4.8.1/../../../avr/lib/avr5/libc.a(strtod.o) (errno)
/usr/lib/gcc/avr/4.8.1/avr5/libgcc.a(_prologue.o)
                              /usr/lib/gcc/avr/4.8.1/../../../avr/lib/avr5/libc.a(realloc.o) (__prologue_saves__)
/usr/lib/gcc/avr/4.8.1/avr5/libgcc.a(_epilogue.o)
                              /usr/lib/gcc/avr/4.8.1/../../../avr/lib/avr5/libc.a(realloc.o) (__epilogue_restores__)

Allocating common symbols
Common symbol       size              file

errno               0x2               /usr/lib/gcc/avr/4.8.1/../../../avr/lib/avr5/libc.a(errno.o)
__brkval            0x2               /usr/lib/gcc/avr/4.8.1/../../../avr/lib/avr5/libc.a(malloc.o)
__flp               0x2               /usr/lib/gcc/avr/4.8.1/../../../avr/lib/avr5/libc.a(malloc.o)

Discarded input sections

 .bss           0x0000000000000000        0x0 /usr/lib/gcc/avr/4.8.1/../../../avr/lib/avr5/crtm328p.o
 .text          0x0000000000000000        0x0 ./Settings/Settings.o
 .bss           0x0000000000000000        0x0 ./Settings/Settings.o
 .text._ZN8Settings12getThresholdEv
                0x0000000000000000        0x6 ./Settings/Settings.o
 .text._ZN8Settings18getDebounceCounterEv
                0x0000000000000000        0x6 ./Settings/Settings.o
 .text._ZN8Settings21getTripAngleThresholdEv
                0x0000000000000000        0x6 ./Settings/Settings.o
 .text._ZN8Settings13getZLockAngleEv
                0x0000000000000000        0x6 ./Settings/Settings.o
 .text._ZN8Settings13getHysteresisEv
                0x0000000000000000        0x6 ./Settings/Settings.o
 .text._ZN8Settings14getMinIntervalEv
                0x0000000000000000        0x6 ./Settings/Settings.o
 .text._ZN8Settings22getMinIntervalInMillisEv
                0x0000000000000000        0xe ./Settings/Settings.o
 .group         0x0000000000000000        0x8 ./main.o
 .group         0x0000000000000000        0x8 ./main.o
 .group         0x0000000000000000        0x8 ./main.o
 .text          0x0000000000000000        0x0 ./main.o
 .bss           0x0000000000000000        0x0 ./main.o
 .bss.buf       0x0000000000000000        0x6 ./main.o
 .group         0x0000000000000000        0x8 /work/opensource/personal/microcontroller/arduino/ArduinoLibraries/ArduinoAccelerometerDriver/Release/libArduinoAccelerometerSensor.a(AccelerometerMMA8451.o)
 .group         0x0000000000000000        0x8 /work/opensource/personal/microcontroller/arduino/ArduinoLibraries/ArduinoAccelerometerDriver/Release/libArduinoAccelerometerSensor.a(AccelerometerMMA8451.o)
 .text          0x0000000000000000        0x0 /work/opensource/personal/microcontroller/arduino/ArduinoLibraries/ArduinoAccelerometerDriver/Release/libArduinoAccelerometerSensor.a(AccelerometerMMA8451.o)
 .bss           0x0000000000000000        0x0 /work/opensource/personal/microcontroller/arduino/ArduinoLibraries/ArduinoAccelerometerDriver/Release/libArduinoAccelerometerSensor.a(AccelerometerMMA8451.o)
 .text._ZN20AccelerometerMMA845111isDataReadyEv
                0x0000000000000000       0x26 /work/opensource/personal/microcontroller/arduino/ArduinoLibraries/ArduinoAccelerometerDriver/Release/libArduinoAccelerometerSensor.a(AccelerometerMMA8451.o)
 .text._ZN20AccelerometerMMA84517readXYZEPh
                0x0000000000000000       0x18 /work/opensource/personal/microcontroller/arduino/ArduinoLibraries/ArduinoAccelerometerDriver/Release/libArduinoAccelerometerSensor.a(AccelerometerMMA8451.o)
 .text._ZN20AccelerometerMMA845129setPortraitLandscapeDetectionEb
                0x0000000000000000       0x14 /work/opensource/personal/microcontroller/arduino/ArduinoLibraries/ArduinoAccelerometerDriver/Release/libArduinoAccelerometerSensor.a(AccelerometerMMA8451.o)
 .text._ZN20AccelerometerMMA845121setTransientDetectionEbhb
                0x0000000000000000       0x1c /work/opensource/personal/microcontroller/arduino/ArduinoLibraries/ArduinoAccelerometerDriver/Release/libArduinoAccelerometerSensor.a(AccelerometerMMA8451.o)
 .text._ZN20AccelerometerMMA845121setTransientThresholdEbh
                0x0000000000000000        0xe /work/opensource/personal/microcontroller/arduino/ArduinoLibraries/ArduinoAccelerometerDriver/Release/libArduinoAccelerometerSensor.a(AccelerometerMMA8451.o)
 .text._ZN20AccelerometerMMA845117setTransientCountEh
                0x0000000000000000        0xa /work/opensource/personal/microcontroller/arduino/ArduinoLibraries/ArduinoAccelerometerDriver/Release/libArduinoAccelerometerSensor.a(AccelerometerMMA8451.o)
 .text._ZN20AccelerometerMMA845118setMotionDetectionEbbh
                0x0000000000000000       0x1e /work/opensource/personal/microcontroller/arduino/ArduinoLibraries/ArduinoAccelerometerDriver/Release/libArduinoAccelerometerSensor.a(AccelerometerMMA8451.o)
 .text._ZN20AccelerometerMMA845127setMotionDetectionThresholdEbh
                0x0000000000000000        0xe /work/opensource/personal/microcontroller/arduino/ArduinoLibraries/ArduinoAccelerometerDriver/Release/libArduinoAccelerometerSensor.a(AccelerometerMMA8451.o)
 .text._ZN20AccelerometerMMA845123setMotionDetectionCountEh
                0x0000000000000000        0xa /work/opensource/personal/microcontroller/arduino/ArduinoLibraries/ArduinoAccelerometerDriver/Release/libArduinoAccelerometerSensor.a(AccelerometerMMA8451.o)
 .text._ZN20AccelerometerMMA845116setBackFrontTripENS_13BackFrontTripE
                0x0000000000000000       0x14 /work/opensource/personal/microcontroller/arduino/ArduinoLibraries/ArduinoAccelerometerDriver/Release/libArduinoAccelerometerSensor.a(AccelerometerMMA8451.o)
 .text._ZN20AccelerometerMMA845122setZLockThresholdAngleENS_19ZLockThresholdAngleE
                0x0000000000000000        0xc /work/opensource/personal/microcontroller/arduino/ArduinoLibraries/ArduinoAccelerometerDriver/Release/libArduinoAccelerometerSensor.a(AccelerometerMMA8451.o)
 .text._ZN20AccelerometerMMA845134setPortraitLandscapeThresholdAngleENS_31PortraitLandscapeThresholdAngleE
                0x0000000000000000       0x12 /work/opensource/personal/microcontroller/arduino/ArduinoLibraries/ArduinoAccelerometerDriver/Release/libArduinoAccelerometerSensor.a(AccelerometerMMA8451.o)
 .text._ZN20AccelerometerMMA845118setHysteresisAngleENS_15HysteresisAngleE
                0x0000000000000000        0xc /work/opensource/personal/microcontroller/arduino/ArduinoLibraries/ArduinoAccelerometerDriver/Release/libArduinoAccelerometerSensor.a(AccelerometerMMA8451.o)
 .text._ZN20AccelerometerMMA845116disableInterruptENS_9InterruptE
                0x0000000000000000        0xc /work/opensource/personal/microcontroller/arduino/ArduinoLibraries/ArduinoAccelerometerDriver/Release/libArduinoAccelerometerSensor.a(AccelerometerMMA8451.o)
 .text._ZN20AccelerometerMMA845120routeInterruptToInt2ENS_9InterruptE
                0x0000000000000000        0xc /work/opensource/personal/microcontroller/arduino/ArduinoLibraries/ArduinoAccelerometerDriver/Release/libArduinoAccelerometerSensor.a(AccelerometerMMA8451.o)
 .text._ZN20AccelerometerMMA845114routeInterruptENS_9InterruptEh
                0x0000000000000000       0x14 /work/opensource/personal/microcontroller/arduino/ArduinoLibraries/ArduinoAccelerometerDriver/Release/libArduinoAccelerometerSensor.a(AccelerometerMMA8451.o)
 .text._ZN20AccelerometerMMA845115enableInterruptENS_9InterruptEh
                0x0000000000000000       0x30 /work/opensource/personal/microcontroller/arduino/ArduinoLibraries/ArduinoAccelerometerDriver/Release/libArduinoAccelerometerSensor.a(AccelerometerMMA8451.o)
 .text._ZN20AccelerometerMMA845120setInterruptPolarityENS_17InterruptPolarityE
                0x0000000000000000        0xe /work/opensource/personal/microcontroller/arduino/ArduinoLibraries/ArduinoAccelerometerDriver/Release/libArduinoAccelerometerSensor.a(AccelerometerMMA8451.o)
 .text._ZN20AccelerometerMMA845121setAslpOutputDataRateENS_18AslpOutputDataRateE
                0x0000000000000000       0x14 /work/opensource/personal/microcontroller/arduino/ArduinoLibraries/ArduinoAccelerometerDriver/Release/libArduinoAccelerometerSensor.a(AccelerometerMMA8451.o)
 .text._ZN20AccelerometerMMA845111setReadModeENS_8ReadModeE
                0x0000000000000000       0x28 /work/opensource/personal/microcontroller/arduino/ArduinoLibraries/ArduinoAccelerometerDriver/Release/libArduinoAccelerometerSensor.a(AccelerometerMMA8451.o)
 .text._ZN20AccelerometerMMA845119setOversamplingModeENS_16OversamplingModeE
                0x0000000000000000        0xc /work/opensource/personal/microcontroller/arduino/ArduinoLibraries/ArduinoAccelerometerDriver/Release/libArduinoAccelerometerSensor.a(AccelerometerMMA8451.o)
 .text._ZN20AccelerometerMMA845132setHighPassFilterCutoffFrequencyENS_29HighPassFilterCutoffFrequencyE
                0x0000000000000000        0xc /work/opensource/personal/microcontroller/arduino/ArduinoLibraries/ArduinoAccelerometerDriver/Release/libArduinoAccelerometerSensor.a(AccelerometerMMA8451.o)
 .text._ZN20AccelerometerMMA845120highPassFilteredDataEb
                0x0000000000000000        0xc /work/opensource/personal/microcontroller/arduino/ArduinoLibraries/ArduinoAccelerometerDriver/Release/libArduinoAccelerometerSensor.a(AccelerometerMMA8451.o)
 .text._ZN20AccelerometerMMA845125setFifoBufferOverflowModeENS_22FifoBufferOverflowModeE
                0x0000000000000000       0x32 /work/opensource/personal/microcontroller/arduino/ArduinoLibraries/ArduinoAccelerometerDriver/Release/libArduinoAccelerometerSensor.a(AccelerometerMMA8451.o)
 .text._ZN20AccelerometerMMA845116setFifoWatermarkEh
                0x0000000000000000        0xc /work/opensource/personal/microcontroller/arduino/ArduinoLibraries/ArduinoAccelerometerDriver/Release/libArduinoAccelerometerSensor.a(AccelerometerMMA8451.o)
 .text._ZN20AccelerometerMMA845116getFifoGateErrorEv
                0x0000000000000000       0x10 /work/opensource/personal/microcontroller/arduino/ArduinoLibraries/ArduinoAccelerometerDriver/Release/libArduinoAccelerometerSensor.a(AccelerometerMMA8451.o)
 .text._ZN20AccelerometerMMA845110getFifoFgtEv
                0x0000000000000000       0x10 /work/opensource/personal/microcontroller/arduino/ArduinoLibraries/ArduinoAccelerometerDriver/Release/libArduinoAccelerometerSensor.a(AccelerometerMMA8451.o)
 .text._ZN20AccelerometerMMA84519getSysmodEv
                0x0000000000000000        0xc /work/opensource/personal/microcontroller/arduino/ArduinoLibraries/ArduinoAccelerometerDriver/Release/libArduinoAccelerometerSensor.a(AccelerometerMMA8451.o)
 .text._ZN20AccelerometerMMA845110convertToGEPh
                0x0000000000000000        0xc /work/opensource/personal/microcontroller/arduino/ArduinoLibraries/ArduinoAccelerometerDriver/Release/libArduinoAccelerometerSensor.a(AccelerometerMMA8451.o)
 .text._ZN20AccelerometerMMA845120setPushPullOpenDrainENS_17PushPullOpenDrainE
                0x0000000000000000        0xe /work/opensource/personal/microcontroller/arduino/ArduinoLibraries/ArduinoAccelerometerDriver/Release/libArduinoAccelerometerSensor.a(AccelerometerMMA8451.o)
 .text._ZN20AccelerometerMMA845112gerLastErrorEv
                0x0000000000000000        0x6 /work/opensource/personal/microcontroller/arduino/ArduinoLibraries/ArduinoAccelerometerDriver/Release/libArduinoAccelerometerSensor.a(AccelerometerMMA8451.o)
 .group         0x0000000000000000        0x8 /work/opensource/personal/microcontroller/arduino/ArduinoLibraries/ArduinoMessagingProtocol/Release/libArduinoMessagingProtocol.a(RemoteDevice.o)
 .text          0x0000000000000000        0x0 /work/opensource/personal/microcontroller/arduino/ArduinoLibraries/ArduinoMessagingProtocol/Release/libArduinoMessagingProtocol.a(RemoteDevice.o)
 .bss           0x0000000000000000        0x0 /work/opensource/personal/microcontroller/arduino/ArduinoLibraries/ArduinoMessagingProtocol/Release/libArduinoMessagingProtocol.a(RemoteDevice.o)
 .text._ZN12RemoteDevice11isConnectedEm
                0x0000000000000000       0x60 /work/opensource/personal/microcontroller/arduino/ArduinoLibraries/ArduinoMessagingProtocol/Release/libArduinoMessagingProtocol.a(RemoteDevice.o)
 .text._ZN12RemoteDevice29transmitWaitingForMessageTypeEP7MessageNS0_4TypeEm
                0x0000000000000000       0x50 /work/opensource/personal/microcontroller/arduino/ArduinoLibraries/ArduinoMessagingProtocol/Release/libArduinoMessagingProtocol.a(RemoteDevice.o)
 .text          0x0000000000000000        0x0 /work/opensource/personal/microcontroller/arduino/ArduinoLibraries/ArduinoMessagingProtocol/Release/libArduinoMessagingProtocol.a(Notifier.o)
 .bss           0x0000000000000000        0x0 /work/opensource/personal/microcontroller/arduino/ArduinoLibraries/ArduinoMessagingProtocol/Release/libArduinoMessagingProtocol.a(Notifier.o)
 .text          0x0000000000000000        0x0 /work/opensource/personal/microcontroller/arduino/ArduinoLibraries/ArduinoMessagingProtocol/Release/libArduinoMessagingProtocol.a(MessageParser.o)
 .bss           0x0000000000000000        0x0 /work/opensource/personal/microcontroller/arduino/ArduinoLibraries/ArduinoMessagingProtocol/Release/libArduinoMessagingProtocol.a(MessageParser.o)
 .text._ZN13MessageParser5resetEv
                0x0000000000000000        0x6 /work/opensource/personal/microcontroller/arduino/ArduinoLibraries/ArduinoMessagingProtocol/Release/libArduinoMessagingProtocol.a(MessageParser.o)
 .text._ZN13MessageParser11decodeBytesEPht
                0x0000000000000000       0x46 /work/opensource/personal/microcontroller/arduino/ArduinoLibraries/ArduinoMessagingProtocol/Release/libArduinoMessagingProtocol.a(MessageParser.o)
 .text._ZN13MessageParser17wasMessageDecodedEv
                0x0000000000000000       0x10 /work/opensource/personal/microcontroller/arduino/ArduinoLibraries/ArduinoMessagingProtocol/Release/libArduinoMessagingProtocol.a(MessageParser.o)
 .text._ZN13MessageParser8getStateEv
                0x0000000000000000        0x6 /work/opensource/personal/microcontroller/arduino/ArduinoLibraries/ArduinoMessagingProtocol/Release/libArduinoMessagingProtocol.a(MessageParser.o)
 .text          0x0000000000000000        0x0 /work/opensource/personal/microcontroller/arduino/ArduinoLibraries/ArduinoMessagingProtocol/Release/libArduinoMessagingProtocol.a(Message.o)
 .bss           0x0000000000000000        0x0 /work/opensource/personal/microcontroller/arduino/ArduinoLibraries/ArduinoMessagingProtocol/Release/libArduinoMessagingProtocol.a(Message.o)
 .text._ZN7MessageC2Ev
                0x0000000000000000        0xe /work/opensource/personal/microcontroller/arduino/ArduinoLibraries/ArduinoMessagingProtocol/Release/libArduinoMessagingProtocol.a(Message.o)
 .text._ZN7MessageC2EhhhPh
                0x0000000000000000       0x16 /work/opensource/personal/microcontroller/arduino/ArduinoLibraries/ArduinoMessagingProtocol/Release/libArduinoMessagingProtocol.a(Message.o)
 .text._ZN7Message10setPayloadEPh
                0x0000000000000000        0x8 /work/opensource/personal/microcontroller/arduino/ArduinoLibraries/ArduinoMessagingProtocol/Release/libArduinoMessagingProtocol.a(Message.o)
 .text._ZN7Message5toRawEPh
                0x0000000000000000       0x62 /work/opensource/personal/microcontroller/arduino/ArduinoLibraries/ArduinoMessagingProtocol/Release/libArduinoMessagingProtocol.a(Message.o)
 .group         0x0000000000000000        0x8 /work/opensource/personal/microcontroller/arduino/ArduinoLibraries/ArduinoIO/Release/libArduinoIO.a(SoftwareSerialOutputStream.o)
 .group         0x0000000000000000        0x8 /work/opensource/personal/microcontroller/arduino/ArduinoLibraries/ArduinoIO/Release/libArduinoIO.a(SoftwareSerialOutputStream.o)
 .group         0x0000000000000000        0x8 /work/opensource/personal/microcontroller/arduino/ArduinoLibraries/ArduinoIO/Release/libArduinoIO.a(SoftwareSerialOutputStream.o)
 .text          0x0000000000000000        0x0 /work/opensource/personal/microcontroller/arduino/ArduinoLibraries/ArduinoIO/Release/libArduinoIO.a(SoftwareSerialOutputStream.o)
 .bss           0x0000000000000000        0x0 /work/opensource/personal/microcontroller/arduino/ArduinoLibraries/ArduinoIO/Release/libArduinoIO.a(SoftwareSerialOutputStream.o)
 .rodata._ZTV9Closeable
                0x0000000000000000        0x6 /work/opensource/personal/microcontroller/arduino/ArduinoLibraries/ArduinoIO/Release/libArduinoIO.a(SoftwareSerialOutputStream.o)
 .rodata._ZTV18SerialOutputStream
                0x0000000000000000       0x14 /work/opensource/personal/microcontroller/arduino/ArduinoLibraries/ArduinoIO/Release/libArduinoIO.a(SoftwareSerialOutputStream.o)
 .group         0x0000000000000000        0x8 /work/opensource/personal/microcontroller/arduino/ArduinoLibraries/ArduinoIO/Release/libArduinoIO.a(SoftwareSerialInputStream.o)
 .group         0x0000000000000000        0x8 /work/opensource/personal/microcontroller/arduino/ArduinoLibraries/ArduinoIO/Release/libArduinoIO.a(SoftwareSerialInputStream.o)
 .group         0x0000000000000000        0x8 /work/opensource/personal/microcontroller/arduino/ArduinoLibraries/ArduinoIO/Release/libArduinoIO.a(SoftwareSerialInputStream.o)
 .text          0x0000000000000000        0x0 /work/opensource/personal/microcontroller/arduino/ArduinoLibraries/ArduinoIO/Release/libArduinoIO.a(SoftwareSerialInputStream.o)
 .bss           0x0000000000000000        0x0 /work/opensource/personal/microcontroller/arduino/ArduinoLibraries/ArduinoIO/Release/libArduinoIO.a(SoftwareSerialInputStream.o)
 .rodata._ZTV9Closeable
                0x0000000000000000        0x6 /work/opensource/personal/microcontroller/arduino/ArduinoLibraries/ArduinoIO/Release/libArduinoIO.a(SoftwareSerialInputStream.o)
 .rodata._ZTV17SerialInputStream
                0x0000000000000000       0x16 /work/opensource/personal/microcontroller/arduino/ArduinoLibraries/ArduinoIO/Release/libArduinoIO.a(SoftwareSerialInputStream.o)
 .group         0x0000000000000000        0x8 /work/opensource/personal/microcontroller/arduino/ArduinoLibraries/ArduinoIO/Release/libArduinoIO.a(OutputStream.o)
 .text          0x0000000000000000        0x0 /work/opensource/personal/microcontroller/arduino/ArduinoLibraries/ArduinoIO/Release/libArduinoIO.a(OutputStream.o)
 .bss           0x0000000000000000        0x0 /work/opensource/personal/microcontroller/arduino/ArduinoLibraries/ArduinoIO/Release/libArduinoIO.a(OutputStream.o)
 .group         0x0000000000000000        0x8 /work/opensource/personal/microcontroller/arduino/ArduinoLibraries/ArduinoIO/Release/libArduinoIO.a(InputStream.o)
 .text          0x0000000000000000        0x0 /work/opensource/personal/microcontroller/arduino/ArduinoLibraries/ArduinoIO/Release/libArduinoIO.a(InputStream.o)
 .bss           0x0000000000000000        0x0 /work/opensource/personal/microcontroller/arduino/ArduinoLibraries/ArduinoIO/Release/libArduinoIO.a(InputStream.o)
 .rodata._ZTV11InputStream
                0x0000000000000000       0x16 /work/opensource/personal/microcontroller/arduino/ArduinoLibraries/ArduinoIO/Release/libArduinoIO.a(InputStream.o)
 .group         0x0000000000000000        0x8 /work/opensource/personal/microcontroller/arduino/ArduinoLibraries/ArduinoIO/Release/libArduinoIO.a(ExternalEepromOutputStream.o)
 .group         0x0000000000000000        0x8 /work/opensource/personal/microcontroller/arduino/ArduinoLibraries/ArduinoIO/Release/libArduinoIO.a(ExternalEepromOutputStream.o)
 .group         0x0000000000000000        0x8 /work/opensource/personal/microcontroller/arduino/ArduinoLibraries/ArduinoIO/Release/libArduinoIO.a(ExternalEepromOutputStream.o)
 .group         0x0000000000000000       0x10 /work/opensource/personal/microcontroller/arduino/ArduinoLibraries/ArduinoIO/Release/libArduinoIO.a(ExternalEepromOutputStream.o)
 .text          0x0000000000000000        0x0 /work/opensource/personal/microcontroller/arduino/ArduinoLibraries/ArduinoIO/Release/libArduinoIO.a(ExternalEepromOutputStream.o)
 .bss           0x0000000000000000        0x0 /work/opensource/personal/microcontroller/arduino/ArduinoLibraries/ArduinoIO/Release/libArduinoIO.a(ExternalEepromOutputStream.o)
 .text._ZN26ExternalEepromOutputStreamC2EP14ExternalEeprom
                0x0000000000000000       0x78 /work/opensource/personal/microcontroller/arduino/ArduinoLibraries/ArduinoIO/Release/libArduinoIO.a(ExternalEepromOutputStream.o)
 .text._ZTv0_n6_N26ExternalEepromOutputStream4seekEj
                0x0000000000000000       0x14 /work/opensource/personal/microcontroller/arduino/ArduinoLibraries/ArduinoIO/Release/libArduinoIO.a(ExternalEepromOutputStream.o)
 .rodata._ZTV9Closeable
                0x0000000000000000        0x6 /work/opensource/personal/microcontroller/arduino/ArduinoLibraries/ArduinoIO/Release/libArduinoIO.a(ExternalEepromOutputStream.o)
 .group         0x0000000000000000        0x8 /work/opensource/personal/microcontroller/arduino/ArduinoLibraries/ArduinoIO/Release/libArduinoIO.a(ExternalEepromInputStream.o)
 .group         0x0000000000000000        0x8 /work/opensource/personal/microcontroller/arduino/ArduinoLibraries/ArduinoIO/Release/libArduinoIO.a(ExternalEepromInputStream.o)
 .group         0x0000000000000000       0x10 /work/opensource/personal/microcontroller/arduino/ArduinoLibraries/ArduinoIO/Release/libArduinoIO.a(ExternalEepromInputStream.o)
 .text          0x0000000000000000        0x0 /work/opensource/personal/microcontroller/arduino/ArduinoLibraries/ArduinoIO/Release/libArduinoIO.a(ExternalEepromInputStream.o)
 .bss           0x0000000000000000        0x0 /work/opensource/personal/microcontroller/arduino/ArduinoLibraries/ArduinoIO/Release/libArduinoIO.a(ExternalEepromInputStream.o)
 .text._ZN25ExternalEepromInputStreamC2EP14ExternalEeprom
                0x0000000000000000       0x8c /work/opensource/personal/microcontroller/arduino/ArduinoLibraries/ArduinoIO/Release/libArduinoIO.a(ExternalEepromInputStream.o)
 .text._ZTv0_n6_N25ExternalEepromInputStream4seekEj
                0x0000000000000000       0x14 /work/opensource/personal/microcontroller/arduino/ArduinoLibraries/ArduinoIO/Release/libArduinoIO.a(ExternalEepromInputStream.o)
 .rodata._ZTV8Seekable
                0x0000000000000000        0x6 /work/opensource/personal/microcontroller/arduino/ArduinoLibraries/ArduinoIO/Release/libArduinoIO.a(ExternalEepromInputStream.o)
 .rodata._ZTV9Closeable
                0x0000000000000000        0x6 /work/opensource/personal/microcontroller/arduino/ArduinoLibraries/ArduinoIO/Release/libArduinoIO.a(ExternalEepromInputStream.o)
 .group         0x0000000000000000        0x8 /work/opensource/personal/microcontroller/arduino/ArduinoLibraries/ArduinoIO/Release/libArduinoIO.a(DataOutputStream.o)
 .group         0x0000000000000000        0x8 /work/opensource/personal/microcontroller/arduino/ArduinoLibraries/ArduinoIO/Release/libArduinoIO.a(DataOutputStream.o)
 .text          0x0000000000000000        0x0 /work/opensource/personal/microcontroller/arduino/ArduinoLibraries/ArduinoIO/Release/libArduinoIO.a(DataOutputStream.o)
 .bss           0x0000000000000000        0x0 /work/opensource/personal/microcontroller/arduino/ArduinoLibraries/ArduinoIO/Release/libArduinoIO.a(DataOutputStream.o)
 .rodata._ZTV10DataOutput
                0x0000000000000000       0x20 /work/opensource/personal/microcontroller/arduino/ArduinoLibraries/ArduinoIO/Release/libArduinoIO.a(DataOutputStream.o)
 .group         0x0000000000000000        0x8 /work/opensource/personal/microcontroller/arduino/ArduinoLibraries/ArduinoIO/Release/libArduinoIO.a(DataInputStream.o)
 .group         0x0000000000000000        0x8 /work/opensource/personal/microcontroller/arduino/ArduinoLibraries/ArduinoIO/Release/libArduinoIO.a(DataInputStream.o)
 .text          0x0000000000000000        0x0 /work/opensource/personal/microcontroller/arduino/ArduinoLibraries/ArduinoIO/Release/libArduinoIO.a(DataInputStream.o)
 .bss           0x0000000000000000        0x0 /work/opensource/personal/microcontroller/arduino/ArduinoLibraries/ArduinoIO/Release/libArduinoIO.a(DataInputStream.o)
 .rodata._ZTV9DataInput
                0x0000000000000000       0x1e /work/opensource/personal/microcontroller/arduino/ArduinoLibraries/ArduinoIO/Release/libArduinoIO.a(DataInputStream.o)
 .group         0x0000000000000000        0x8 /work/opensource/personal/microcontroller/arduino/ArduinoLibraries/ArduinoIO/Release/libArduinoIO.a(ByteArrayOutputStream.o)
 .group         0x0000000000000000        0x8 /work/opensource/personal/microcontroller/arduino/ArduinoLibraries/ArduinoIO/Release/libArduinoIO.a(ByteArrayOutputStream.o)
 .group         0x0000000000000000        0x8 /work/opensource/personal/microcontroller/arduino/ArduinoLibraries/ArduinoIO/Release/libArduinoIO.a(ByteArrayOutputStream.o)
 .group         0x0000000000000000        0x8 /work/opensource/personal/microcontroller/arduino/ArduinoLibraries/ArduinoIO/Release/libArduinoIO.a(ByteArrayOutputStream.o)
 .group         0x0000000000000000        0x8 /work/opensource/personal/microcontroller/arduino/ArduinoLibraries/ArduinoIO/Release/libArduinoIO.a(ByteArrayOutputStream.o)
 .group         0x0000000000000000       0x10 /work/opensource/personal/microcontroller/arduino/ArduinoLibraries/ArduinoIO/Release/libArduinoIO.a(ByteArrayOutputStream.o)
 .text          0x0000000000000000        0x0 /work/opensource/personal/microcontroller/arduino/ArduinoLibraries/ArduinoIO/Release/libArduinoIO.a(ByteArrayOutputStream.o)
 .bss           0x0000000000000000        0x0 /work/opensource/personal/microcontroller/arduino/ArduinoLibraries/ArduinoIO/Release/libArduinoIO.a(ByteArrayOutputStream.o)
 .text._ZN20SeekableOutputStreamC2Ev
                0x0000000000000000       0x3e /work/opensource/personal/microcontroller/arduino/ArduinoLibraries/ArduinoIO/Release/libArduinoIO.a(ByteArrayOutputStream.o)
 .text._ZN21ByteArrayOutputStreamC2EPhj
                0x0000000000000000       0x7c /work/opensource/personal/microcontroller/arduino/ArduinoLibraries/ArduinoIO/Release/libArduinoIO.a(ByteArrayOutputStream.o)
 .text._ZN21ByteArrayOutputStream4sizeEv
                0x0000000000000000        0x8 /work/opensource/personal/microcontroller/arduino/ArduinoLibraries/ArduinoIO/Release/libArduinoIO.a(ByteArrayOutputStream.o)
 .text._ZN21ByteArrayOutputStream11toByteArrayEv
                0x0000000000000000        0x8 /work/opensource/personal/microcontroller/arduino/ArduinoLibraries/ArduinoIO/Release/libArduinoIO.a(ByteArrayOutputStream.o)
 .text._ZTv0_n6_N21ByteArrayOutputStream4seekEj
                0x0000000000000000       0x14 /work/opensource/personal/microcontroller/arduino/ArduinoLibraries/ArduinoIO/Release/libArduinoIO.a(ByteArrayOutputStream.o)
 .rodata._ZTV8Seekable
                0x0000000000000000        0x6 /work/opensource/personal/microcontroller/arduino/ArduinoLibraries/ArduinoIO/Release/libArduinoIO.a(ByteArrayOutputStream.o)
 .rodata._ZTV9Closeable
                0x0000000000000000        0x6 /work/opensource/personal/microcontroller/arduino/ArduinoLibraries/ArduinoIO/Release/libArduinoIO.a(ByteArrayOutputStream.o)
 .group         0x0000000000000000        0x8 /work/opensource/personal/microcontroller/arduino/ArduinoLibraries/ArduinoIO/Release/libArduinoIO.a(ByteArrayInputStream.o)
 .group         0x0000000000000000        0x8 /work/opensource/personal/microcontroller/arduino/ArduinoLibraries/ArduinoIO/Release/libArduinoIO.a(ByteArrayInputStream.o)
 .group         0x0000000000000000       0x10 /work/opensource/personal/microcontroller/arduino/ArduinoLibraries/ArduinoIO/Release/libArduinoIO.a(ByteArrayInputStream.o)
 .text          0x0000000000000000        0x0 /work/opensource/personal/microcontroller/arduino/ArduinoLibraries/ArduinoIO/Release/libArduinoIO.a(ByteArrayInputStream.o)
 .bss           0x0000000000000000        0x0 /work/opensource/personal/microcontroller/arduino/ArduinoLibraries/ArduinoIO/Release/libArduinoIO.a(ByteArrayInputStream.o)
 .text._ZN20ByteArrayInputStreamC2EPhj
                0x0000000000000000       0x7a /work/opensource/personal/microcontroller/arduino/ArduinoLibraries/ArduinoIO/Release/libArduinoIO.a(ByteArrayInputStream.o)
 .text._ZTv0_n6_N20ByteArrayInputStream4seekEj
                0x0000000000000000       0x14 /work/opensource/personal/microcontroller/arduino/ArduinoLibraries/ArduinoIO/Release/libArduinoIO.a(ByteArrayInputStream.o)
 .rodata._ZTV8Seekable
                0x0000000000000000        0x6 /work/opensource/personal/microcontroller/arduino/ArduinoLibraries/ArduinoIO/Release/libArduinoIO.a(ByteArrayInputStream.o)
 .rodata._ZTV9Closeable
                0x0000000000000000        0x6 /work/opensource/personal/microcontroller/arduino/ArduinoLibraries/ArduinoIO/Release/libArduinoIO.a(ByteArrayInputStream.o)
 .group         0x0000000000000000        0x8 /work/opensource/personal/microcontroller/arduino/ArduinoLibraries/ArduinoMemoryDriver/Release/libArduinoMemoryDriver.a(ExternalEeprom.o)
 .group         0x0000000000000000        0x8 /work/opensource/personal/microcontroller/arduino/ArduinoLibraries/ArduinoMemoryDriver/Release/libArduinoMemoryDriver.a(ExternalEeprom.o)
 .group         0x0000000000000000        0x8 /work/opensource/personal/microcontroller/arduino/ArduinoLibraries/ArduinoMemoryDriver/Release/libArduinoMemoryDriver.a(ExternalEeprom.o)
 .text          0x0000000000000000        0x0 /work/opensource/personal/microcontroller/arduino/ArduinoLibraries/ArduinoMemoryDriver/Release/libArduinoMemoryDriver.a(ExternalEeprom.o)
 .bss           0x0000000000000000        0x0 /work/opensource/personal/microcontroller/arduino/ArduinoLibraries/ArduinoMemoryDriver/Release/libArduinoMemoryDriver.a(ExternalEeprom.o)
 .group         0x0000000000000000        0x8 /work/opensource/personal/microcontroller/arduino/ArduinoLibraries/ArduinoMemoryDriver/Release/libArduinoMemoryDriver.a(External24cl256Eeprom.o)
 .group         0x0000000000000000        0x8 /work/opensource/personal/microcontroller/arduino/ArduinoLibraries/ArduinoMemoryDriver/Release/libArduinoMemoryDriver.a(External24cl256Eeprom.o)
 .group         0x0000000000000000        0x8 /work/opensource/personal/microcontroller/arduino/ArduinoLibraries/ArduinoMemoryDriver/Release/libArduinoMemoryDriver.a(External24cl256Eeprom.o)
 .text          0x0000000000000000        0x0 /work/opensource/personal/microcontroller/arduino/ArduinoLibraries/ArduinoMemoryDriver/Release/libArduinoMemoryDriver.a(External24cl256Eeprom.o)
 .bss           0x0000000000000000        0x0 /work/opensource/personal/microcontroller/arduino/ArduinoLibraries/ArduinoMemoryDriver/Release/libArduinoMemoryDriver.a(External24cl256Eeprom.o)
 .text._ZN21External24cl256EepromD2Ev
                0x0000000000000000        0xc /work/opensource/personal/microcontroller/arduino/ArduinoLibraries/ArduinoMemoryDriver/Release/libArduinoMemoryDriver.a(External24cl256Eeprom.o)
 .text._ZN21External24cl256EepromD0Ev
                0x0000000000000000        0xe /work/opensource/personal/microcontroller/arduino/ArduinoLibraries/ArduinoMemoryDriver/Release/libArduinoMemoryDriver.a(External24cl256Eeprom.o)
 .rodata._ZTV21External24cl256Eeprom
                0x0000000000000000       0x16 /work/opensource/personal/microcontroller/arduino/ArduinoLibraries/ArduinoMemoryDriver/Release/libArduinoMemoryDriver.a(External24cl256Eeprom.o)
 .text          0x0000000000000000        0x0 /work/opensource/personal/microcontroller/arduino/ArduinoLibraries/ArduinoDevice/Release/libArduinoDevice.a(RegisterBasedWiredDevice.o)
 .bss           0x0000000000000000        0x0 /work/opensource/personal/microcontroller/arduino/ArduinoLibraries/ArduinoDevice/Release/libArduinoDevice.a(RegisterBasedWiredDevice.o)
 .group         0x0000000000000000        0x8 /work/opensource/personal/microcontroller/arduino/ArduinoLibraries/ArduinoDevice/Release/libArduinoDevice.a(EepromBasedWiredDevice.o)
 .group         0x0000000000000000        0x8 /work/opensource/personal/microcontroller/arduino/ArduinoLibraries/ArduinoDevice/Release/libArduinoDevice.a(EepromBasedWiredDevice.o)
 .group         0x0000000000000000        0x8 /work/opensource/personal/microcontroller/arduino/ArduinoLibraries/ArduinoDevice/Release/libArduinoDevice.a(EepromBasedWiredDevice.o)
 .group         0x0000000000000000        0x8 /work/opensource/personal/microcontroller/arduino/ArduinoLibraries/ArduinoDevice/Release/libArduinoDevice.a(EepromBasedWiredDevice.o)
 .text          0x0000000000000000        0x0 /work/opensource/personal/microcontroller/arduino/ArduinoLibraries/ArduinoDevice/Release/libArduinoDevice.a(EepromBasedWiredDevice.o)
 .bss           0x0000000000000000        0x0 /work/opensource/personal/microcontroller/arduino/ArduinoLibraries/ArduinoDevice/Release/libArduinoDevice.a(EepromBasedWiredDevice.o)
 .text._ZN22EepromBasedWiredDeviceC2Ehch
                0x0000000000000000       0x3a /work/opensource/personal/microcontroller/arduino/ArduinoLibraries/ArduinoDevice/Release/libArduinoDevice.a(EepromBasedWiredDevice.o)
 .text._ZN22EepromBasedWiredDevice14getAddressSizeEv
                0x0000000000000000        0x6 /work/opensource/personal/microcontroller/arduino/ArduinoLibraries/ArduinoDevice/Release/libArduinoDevice.a(EepromBasedWiredDevice.o)
 .text          0x0000000000000000        0x0 /work/opensource/personal/microcontroller/arduino/ArduinoLibraries/ArduinoDevice/Release/libArduinoDevice.a(WiredDevice.o)
 .bss           0x0000000000000000        0x0 /work/opensource/personal/microcontroller/arduino/ArduinoLibraries/ArduinoDevice/Release/libArduinoDevice.a(WiredDevice.o)
 .text._ZN11WiredDevice16setDeviceAddressEh
                0x0000000000000000        0x6 /work/opensource/personal/microcontroller/arduino/ArduinoLibraries/ArduinoDevice/Release/libArduinoDevice.a(WiredDevice.o)
 .group         0x0000000000000000        0x8 /work/opensource/personal/microcontroller/arduino/ArduinoLibraries/ArduinoCore/Release/libArduinoCore.a(Wire.o)
 .group         0x0000000000000000        0x8 /work/opensource/personal/microcontroller/arduino/ArduinoLibraries/ArduinoCore/Release/libArduinoCore.a(Wire.o)
 .text          0x0000000000000000        0x0 /work/opensource/personal/microcontroller/arduino/ArduinoLibraries/ArduinoCore/Release/libArduinoCore.a(Wire.o)
 .bss           0x0000000000000000        0x0 /work/opensource/personal/microcontroller/arduino/ArduinoLibraries/ArduinoCore/Release/libArduinoCore.a(Wire.o)
 .text._ZN7TwoWire16onReceiveServiceEPhi
                0x0000000000000000       0x46 /work/opensource/personal/microcontroller/arduino/ArduinoLibraries/ArduinoCore/Release/libArduinoCore.a(Wire.o)
 .text._ZN7TwoWire16onRequestServiceEv
                0x0000000000000000       0x18 /work/opensource/personal/microcontroller/arduino/ArduinoLibraries/ArduinoCore/Release/libArduinoCore.a(Wire.o)
 .text._ZN7TwoWire5beginEh
                0x0000000000000000       0x26 /work/opensource/personal/microcontroller/arduino/ArduinoLibraries/ArduinoCore/Release/libArduinoCore.a(Wire.o)
 .text._ZN7TwoWire5beginEi
                0x0000000000000000        0x4 /work/opensource/personal/microcontroller/arduino/ArduinoLibraries/ArduinoCore/Release/libArduinoCore.a(Wire.o)
 .text._ZN7TwoWire3endEv
                0x0000000000000000        0x4 /work/opensource/personal/microcontroller/arduino/ArduinoLibraries/ArduinoCore/Release/libArduinoCore.a(Wire.o)
 .text._ZN7TwoWire8setClockEm
                0x0000000000000000        0x8 /work/opensource/personal/microcontroller/arduino/ArduinoLibraries/ArduinoCore/Release/libArduinoCore.a(Wire.o)
 .text._ZN7TwoWire17beginTransmissionEi
                0x0000000000000000        0x4 /work/opensource/personal/microcontroller/arduino/ArduinoLibraries/ArduinoCore/Release/libArduinoCore.a(Wire.o)
 .text._ZN7TwoWire11requestFromEiii
                0x0000000000000000        0x4 /work/opensource/personal/microcontroller/arduino/ArduinoLibraries/ArduinoCore/Release/libArduinoCore.a(Wire.o)
 .text._ZN7TwoWire9onReceiveEPFviE
                0x0000000000000000        0xa /work/opensource/personal/microcontroller/arduino/ArduinoLibraries/ArduinoCore/Release/libArduinoCore.a(Wire.o)
 .text._ZN7TwoWire9onRequestEPFvvE
                0x0000000000000000        0xa /work/opensource/personal/microcontroller/arduino/ArduinoLibraries/ArduinoCore/Release/libArduinoCore.a(Wire.o)
 .rodata._ZTV6Stream
                0x0000000000000000       0x10 /work/opensource/personal/microcontroller/arduino/ArduinoLibraries/ArduinoCore/Release/libArduinoCore.a(Wire.o)
 .bss._ZN7TwoWire14user_onReceiveE
                0x0000000000000000        0x2 /work/opensource/personal/microcontroller/arduino/ArduinoLibraries/ArduinoCore/Release/libArduinoCore.a(Wire.o)
 .bss._ZN7TwoWire14user_onRequestE
                0x0000000000000000        0x2 /work/opensource/personal/microcontroller/arduino/ArduinoLibraries/ArduinoCore/Release/libArduinoCore.a(Wire.o)
 .group         0x0000000000000000        0x8 /work/opensource/personal/microcontroller/arduino/ArduinoLibraries/ArduinoCore/Release/libArduinoCore.a(SoftwareSerial.o)
 .group         0x0000000000000000        0x8 /work/opensource/personal/microcontroller/arduino/ArduinoLibraries/ArduinoCore/Release/libArduinoCore.a(SoftwareSerial.o)
 .text          0x0000000000000000        0x0 /work/opensource/personal/microcontroller/arduino/ArduinoLibraries/ArduinoCore/Release/libArduinoCore.a(SoftwareSerial.o)
 .bss           0x0000000000000000        0x0 /work/opensource/personal/microcontroller/arduino/ArduinoLibraries/ArduinoCore/Release/libArduinoCore.a(SoftwareSerial.o)
 .text._ZN14SoftwareSerial6listenEv
                0x0000000000000000       0x52 /work/opensource/personal/microcontroller/arduino/ArduinoLibraries/ArduinoCore/Release/libArduinoCore.a(SoftwareSerial.o)
 .text._ZN14SoftwareSerial11rx_pin_readEv
                0x0000000000000000        0xe /work/opensource/personal/microcontroller/arduino/ArduinoLibraries/ArduinoCore/Release/libArduinoCore.a(SoftwareSerial.o)
 .text._ZN14SoftwareSerial12subtract_capEjj
                0x0000000000000000       0x12 /work/opensource/personal/microcontroller/arduino/ArduinoLibraries/ArduinoCore/Release/libArduinoCore.a(SoftwareSerial.o)
 .text._ZN14SoftwareSerial5beginEl
                0x0000000000000000      0x11c /work/opensource/personal/microcontroller/arduino/ArduinoLibraries/ArduinoCore/Release/libArduinoCore.a(SoftwareSerial.o)
 .text._ZN14SoftwareSerial3endEv
                0x0000000000000000        0x4 /work/opensource/personal/microcontroller/arduino/ArduinoLibraries/ArduinoCore/Release/libArduinoCore.a(SoftwareSerial.o)
 .rodata._ZTV6Stream
                0x0000000000000000       0x10 /work/opensource/personal/microcontroller/arduino/ArduinoLibraries/ArduinoCore/Release/libArduinoCore.a(SoftwareSerial.o)
 .group         0x0000000000000000        0x8 /work/opensource/personal/microcontroller/arduino/ArduinoLibraries/ArduinoCore/Release/libArduinoCore.a(HardwareSerial.o)
 .text          0x0000000000000000        0x0 /work/opensource/personal/microcontroller/arduino/ArduinoLibraries/ArduinoCore/Release/libArduinoCore.a(HardwareSerial.o)
 .bss           0x0000000000000000        0x0 /work/opensource/personal/microcontroller/arduino/ArduinoLibraries/ArduinoCore/Release/libArduinoCore.a(HardwareSerial.o)
 .text._ZN14HardwareSerial3endEv
                0x0000000000000000       0x44 /work/opensource/personal/microcontroller/arduino/ArduinoLibraries/ArduinoCore/Release/libArduinoCore.a(HardwareSerial.o)
 .text._ZN14HardwareSerial17availableForWriteEv
                0x0000000000000000       0x1e /work/opensource/personal/microcontroller/arduino/ArduinoLibraries/ArduinoCore/Release/libArduinoCore.a(HardwareSerial.o)
 .text          0x0000000000000000        0x0 /work/opensource/personal/microcontroller/arduino/ArduinoLibraries/ArduinoCore/Release/libArduinoCore.a(HardwareSerial0.o)
 .bss           0x0000000000000000        0x0 /work/opensource/personal/microcontroller/arduino/ArduinoLibraries/ArduinoCore/Release/libArduinoCore.a(HardwareSerial0.o)
 .group         0x0000000000000000        0x8 /work/opensource/personal/microcontroller/arduino/ArduinoLibraries/ArduinoCore/Release/libArduinoCore.a(Print.o)
 .group         0x0000000000000000        0x8 /work/opensource/personal/microcontroller/arduino/ArduinoLibraries/ArduinoCore/Release/libArduinoCore.a(Print.o)
 .text          0x0000000000000000        0x0 /work/opensource/personal/microcontroller/arduino/ArduinoLibraries/ArduinoCore/Release/libArduinoCore.a(Print.o)
 .bss           0x0000000000000000        0x0 /work/opensource/personal/microcontroller/arduino/ArduinoLibraries/ArduinoCore/Release/libArduinoCore.a(Print.o)
 .text._ZN5Print5printEPK19__FlashStringHelper
                0x0000000000000000       0x46 /work/opensource/personal/microcontroller/arduino/ArduinoLibraries/ArduinoCore/Release/libArduinoCore.a(Print.o)
 .text._ZN5Print5printERK6String
                0x0000000000000000       0x1c /work/opensource/personal/microcontroller/arduino/ArduinoLibraries/ArduinoCore/Release/libArduinoCore.a(Print.o)
 .text._ZN5Print5printERK9Printable
                0x0000000000000000       0x14 /work/opensource/personal/microcontroller/arduino/ArduinoLibraries/ArduinoCore/Release/libArduinoCore.a(Print.o)
 .text._ZN5Print7printlnEPK19__FlashStringHelper
                0x0000000000000000       0x24 /work/opensource/personal/microcontroller/arduino/ArduinoLibraries/ArduinoCore/Release/libArduinoCore.a(Print.o)
 .text._ZN5Print7printlnERK6String
                0x0000000000000000       0x24 /work/opensource/personal/microcontroller/arduino/ArduinoLibraries/ArduinoCore/Release/libArduinoCore.a(Print.o)
 .text._ZN5Print7printlnEc
                0x0000000000000000       0x24 /work/opensource/personal/microcontroller/arduino/ArduinoLibraries/ArduinoCore/Release/libArduinoCore.a(Print.o)
 .text._ZN5Print7printlnERK9Printable
                0x0000000000000000       0x24 /work/opensource/personal/microcontroller/arduino/ArduinoLibraries/ArduinoCore/Release/libArduinoCore.a(Print.o)
 .text._ZN5Print5printEii
                0x0000000000000000       0x10 /work/opensource/personal/microcontroller/arduino/ArduinoLibraries/ArduinoCore/Release/libArduinoCore.a(Print.o)
 .text._ZN5Print7printlnEli
                0x0000000000000000       0x24 /work/opensource/personal/microcontroller/arduino/ArduinoLibraries/ArduinoCore/Release/libArduinoCore.a(Print.o)
 .text._ZN5Print5printEhi
                0x0000000000000000        0xe /work/opensource/personal/microcontroller/arduino/ArduinoLibraries/ArduinoCore/Release/libArduinoCore.a(Print.o)
 .text._ZN5Print5printEji
                0x0000000000000000        0xc /work/opensource/personal/microcontroller/arduino/ArduinoLibraries/ArduinoCore/Release/libArduinoCore.a(Print.o)
 .text._ZN5Print7printlnEji
                0x0000000000000000       0x2c /work/opensource/personal/microcontroller/arduino/ArduinoLibraries/ArduinoCore/Release/libArduinoCore.a(Print.o)
 .text._ZN5Print7printlnEmi
                0x0000000000000000       0x24 /work/opensource/personal/microcontroller/arduino/ArduinoLibraries/ArduinoCore/Release/libArduinoCore.a(Print.o)
 .text._ZN5Print10printFloatEdh
                0x0000000000000000      0x1d6 /work/opensource/personal/microcontroller/arduino/ArduinoLibraries/ArduinoCore/Release/libArduinoCore.a(Print.o)
 .text._ZN5Print5printEdi
                0x0000000000000000        0x4 /work/opensource/personal/microcontroller/arduino/ArduinoLibraries/ArduinoCore/Release/libArduinoCore.a(Print.o)
 .text._ZN5Print7printlnEdi
                0x0000000000000000       0x24 /work/opensource/personal/microcontroller/arduino/ArduinoLibraries/ArduinoCore/Release/libArduinoCore.a(Print.o)
 .rodata._ZTV5Print
                0x0000000000000000        0x8 /work/opensource/personal/microcontroller/arduino/ArduinoLibraries/ArduinoCore/Release/libArduinoCore.a(Print.o)
 .text          0x0000000000000000        0x0 /work/opensource/personal/microcontroller/arduino/ArduinoLibraries/ArduinoCore/Release/libArduinoCore.a(Stream.o)
 .bss           0x0000000000000000        0x0 /work/opensource/personal/microcontroller/arduino/ArduinoLibraries/ArduinoCore/Release/libArduinoCore.a(Stream.o)
 .text._ZN6Stream9timedPeekEv
                0x0000000000000000       0x5c /work/opensource/personal/microcontroller/arduino/ArduinoLibraries/ArduinoCore/Release/libArduinoCore.a(Stream.o)
 .text._ZN6Stream13peekNextDigitE13LookaheadModeb
                0x0000000000000000       0x7e /work/opensource/personal/microcontroller/arduino/ArduinoLibraries/ArduinoCore/Release/libArduinoCore.a(Stream.o)
 .text._ZN6Stream10setTimeoutEm
                0x0000000000000000        0xc /work/opensource/personal/microcontroller/arduino/ArduinoLibraries/ArduinoCore/Release/libArduinoCore.a(Stream.o)
 .text._ZN6Stream8parseIntE13LookaheadModec
                0x0000000000000000       0xdc /work/opensource/personal/microcontroller/arduino/ArduinoLibraries/ArduinoCore/Release/libArduinoCore.a(Stream.o)
 .text._ZN6Stream10parseFloatE13LookaheadModec
                0x0000000000000000      0x134 /work/opensource/personal/microcontroller/arduino/ArduinoLibraries/ArduinoCore/Release/libArduinoCore.a(Stream.o)
 .text._ZN6Stream14readBytesUntilEcPcj
                0x0000000000000000       0x66 /work/opensource/personal/microcontroller/arduino/ArduinoLibraries/ArduinoCore/Release/libArduinoCore.a(Stream.o)
 .rodata.str1.1
                0x0000000000000000        0x1 /work/opensource/personal/microcontroller/arduino/ArduinoLibraries/ArduinoCore/Release/libArduinoCore.a(Stream.o)
 .text._ZN6Stream10readStringEv
                0x0000000000000000       0x34 /work/opensource/personal/microcontroller/arduino/ArduinoLibraries/ArduinoCore/Release/libArduinoCore.a(Stream.o)
 .text._ZN6Stream15readStringUntilEc
                0x0000000000000000       0x4c /work/opensource/personal/microcontroller/arduino/ArduinoLibraries/ArduinoCore/Release/libArduinoCore.a(Stream.o)
 .text._ZN6Stream9findMultiEPNS_11MultiTargetEi
                0x0000000000000000      0x132 /work/opensource/personal/microcontroller/arduino/ArduinoLibraries/ArduinoCore/Release/libArduinoCore.a(Stream.o)
 .text._ZN6Stream9findUntilEPcjS0_j.part.0
                0x0000000000000000       0x4a /work/opensource/personal/microcontroller/arduino/ArduinoLibraries/ArduinoCore/Release/libArduinoCore.a(Stream.o)
 .text._ZN6Stream9findUntilEPcjS0_j
                0x0000000000000000       0x74 /work/opensource/personal/microcontroller/arduino/ArduinoLibraries/ArduinoCore/Release/libArduinoCore.a(Stream.o)
 .text._ZN6Stream9findUntilEPcS0_
                0x0000000000000000       0x34 /work/opensource/personal/microcontroller/arduino/ArduinoLibraries/ArduinoCore/Release/libArduinoCore.a(Stream.o)
 .text._ZN6Stream4findEPcj
                0x0000000000000000        0x4 /work/opensource/personal/microcontroller/arduino/ArduinoLibraries/ArduinoCore/Release/libArduinoCore.a(Stream.o)
 .text._ZN6Stream4findEPc
                0x0000000000000000       0x16 /work/opensource/personal/microcontroller/arduino/ArduinoLibraries/ArduinoCore/Release/libArduinoCore.a(Stream.o)
 .text          0x0000000000000000        0x0 /work/opensource/personal/microcontroller/arduino/ArduinoLibraries/ArduinoCore/Release/libArduinoCore.a(WInterrupts.o)
 .bss           0x0000000000000000        0x0 /work/opensource/personal/microcontroller/arduino/ArduinoLibraries/ArduinoCore/Release/libArduinoCore.a(WInterrupts.o)
 .group         0x0000000000000000        0x8 /work/opensource/personal/microcontroller/arduino/ArduinoLibraries/ArduinoCore/Release/libArduinoCore.a(WString.o)
 .group         0x0000000000000000        0x8 /work/opensource/personal/microcontroller/arduino/ArduinoLibraries/ArduinoCore/Release/libArduinoCore.a(WString.o)
 .group         0x0000000000000000        0x8 /work/opensource/personal/microcontroller/arduino/ArduinoLibraries/ArduinoCore/Release/libArduinoCore.a(WString.o)
 .group         0x0000000000000000        0x8 /work/opensource/personal/microcontroller/arduino/ArduinoLibraries/ArduinoCore/Release/libArduinoCore.a(WString.o)
 .text          0x0000000000000000        0x0 /work/opensource/personal/microcontroller/arduino/ArduinoLibraries/ArduinoCore/Release/libArduinoCore.a(WString.o)
 .bss           0x0000000000000000        0x0 /work/opensource/personal/microcontroller/arduino/ArduinoLibraries/ArduinoCore/Release/libArduinoCore.a(WString.o)
 .text.itoa     0x0000000000000000        0x4 /work/opensource/personal/microcontroller/arduino/ArduinoLibraries/ArduinoCore/Release/libArduinoCore.a(WString.o)
 .text.ltoa     0x0000000000000000        0x4 /work/opensource/personal/microcontroller/arduino/ArduinoLibraries/ArduinoCore/Release/libArduinoCore.a(WString.o)
 .text.utoa     0x0000000000000000        0x4 /work/opensource/personal/microcontroller/arduino/ArduinoLibraries/ArduinoCore/Release/libArduinoCore.a(WString.o)
 .text.ultoa    0x0000000000000000        0x4 /work/opensource/personal/microcontroller/arduino/ArduinoLibraries/ArduinoCore/Release/libArduinoCore.a(WString.o)
 .text._ZN6StringD2Ev
                0x0000000000000000        0xa /work/opensource/personal/microcontroller/arduino/ArduinoLibraries/ArduinoCore/Release/libArduinoCore.a(WString.o)
 .text._ZN6String10invalidateEv
                0x0000000000000000       0x24 /work/opensource/personal/microcontroller/arduino/ArduinoLibraries/ArduinoCore/Release/libArduinoCore.a(WString.o)
 .text._ZN6String12changeBufferEj
                0x0000000000000000       0x34 /work/opensource/personal/microcontroller/arduino/ArduinoLibraries/ArduinoCore/Release/libArduinoCore.a(WString.o)
 .text._ZN6String7reserveEj
                0x0000000000000000       0x38 /work/opensource/personal/microcontroller/arduino/ArduinoLibraries/ArduinoCore/Release/libArduinoCore.a(WString.o)
 .text._ZN6String4copyEPKcj
                0x0000000000000000       0x42 /work/opensource/personal/microcontroller/arduino/ArduinoLibraries/ArduinoCore/Release/libArduinoCore.a(WString.o)
 .text._ZN6StringC2EPKc
                0x0000000000000000       0x2c /work/opensource/personal/microcontroller/arduino/ArduinoLibraries/ArduinoCore/Release/libArduinoCore.a(WString.o)
 .text._ZN6String4copyEPK19__FlashStringHelperj
                0x0000000000000000       0x42 /work/opensource/personal/microcontroller/arduino/ArduinoLibraries/ArduinoCore/Release/libArduinoCore.a(WString.o)
 .text._ZN6StringaSERKS_
                0x0000000000000000       0x2e /work/opensource/personal/microcontroller/arduino/ArduinoLibraries/ArduinoCore/Release/libArduinoCore.a(WString.o)
 .text._ZN6StringC2ERKS_
                0x0000000000000000       0x12 /work/opensource/personal/microcontroller/arduino/ArduinoLibraries/ArduinoCore/Release/libArduinoCore.a(WString.o)
 .text._ZN6StringaSEPKc
                0x0000000000000000       0x30 /work/opensource/personal/microcontroller/arduino/ArduinoLibraries/ArduinoCore/Release/libArduinoCore.a(WString.o)
 .text._ZN6StringC2Ec
                0x0000000000000000       0x30 /work/opensource/personal/microcontroller/arduino/ArduinoLibraries/ArduinoCore/Release/libArduinoCore.a(WString.o)
 .text._ZN6StringC2Ehh
                0x0000000000000000       0x5a /work/opensource/personal/microcontroller/arduino/ArduinoLibraries/ArduinoCore/Release/libArduinoCore.a(WString.o)
 .text._ZN6StringC2Eih
                0x0000000000000000       0x58 /work/opensource/personal/microcontroller/arduino/ArduinoLibraries/ArduinoCore/Release/libArduinoCore.a(WString.o)
 .text._ZN6StringC2Ejh
                0x0000000000000000       0x58 /work/opensource/personal/microcontroller/arduino/ArduinoLibraries/ArduinoCore/Release/libArduinoCore.a(WString.o)
 .text._ZN6StringC2Elh
                0x0000000000000000       0x5a /work/opensource/personal/microcontroller/arduino/ArduinoLibraries/ArduinoCore/Release/libArduinoCore.a(WString.o)
 .text._ZN6StringC2Emh
                0x0000000000000000       0x5a /work/opensource/personal/microcontroller/arduino/ArduinoLibraries/ArduinoCore/Release/libArduinoCore.a(WString.o)
 .text._ZN6StringC2Efh
                0x0000000000000000       0x60 /work/opensource/personal/microcontroller/arduino/ArduinoLibraries/ArduinoCore/Release/libArduinoCore.a(WString.o)
 .text._ZN6StringC2Edh
                0x0000000000000000       0x60 /work/opensource/personal/microcontroller/arduino/ArduinoLibraries/ArduinoCore/Release/libArduinoCore.a(WString.o)
 .text._ZN6StringaSEPK19__FlashStringHelper
                0x0000000000000000       0x42 /work/opensource/personal/microcontroller/arduino/ArduinoLibraries/ArduinoCore/Release/libArduinoCore.a(WString.o)
 .text._ZN6StringC2EPK19__FlashStringHelper
                0x0000000000000000       0x12 /work/opensource/personal/microcontroller/arduino/ArduinoLibraries/ArduinoCore/Release/libArduinoCore.a(WString.o)
 .text._ZN6String6concatEPKcj
                0x0000000000000000       0x58 /work/opensource/personal/microcontroller/arduino/ArduinoLibraries/ArduinoCore/Release/libArduinoCore.a(WString.o)
 .text._ZN6String6concatERKS_
                0x0000000000000000        0xe /work/opensource/personal/microcontroller/arduino/ArduinoLibraries/ArduinoCore/Release/libArduinoCore.a(WString.o)
 .text._ZN6String6concatEPKc
                0x0000000000000000       0x20 /work/opensource/personal/microcontroller/arduino/ArduinoLibraries/ArduinoCore/Release/libArduinoCore.a(WString.o)
 .text._ZN6String6concatEc
                0x0000000000000000       0x26 /work/opensource/personal/microcontroller/arduino/ArduinoLibraries/ArduinoCore/Release/libArduinoCore.a(WString.o)
 .text._ZN6String6concatEh
                0x0000000000000000       0x5a /work/opensource/personal/microcontroller/arduino/ArduinoLibraries/ArduinoCore/Release/libArduinoCore.a(WString.o)
 .text._ZN6String6concatEi
                0x0000000000000000       0x64 /work/opensource/personal/microcontroller/arduino/ArduinoLibraries/ArduinoCore/Release/libArduinoCore.a(WString.o)
 .text._ZN6String6concatEj
                0x0000000000000000       0x64 /work/opensource/personal/microcontroller/arduino/ArduinoLibraries/ArduinoCore/Release/libArduinoCore.a(WString.o)
 .text._ZN6String6concatEl
                0x0000000000000000       0x66 /work/opensource/personal/microcontroller/arduino/ArduinoLibraries/ArduinoCore/Release/libArduinoCore.a(WString.o)
 .text._ZN6String6concatEm
                0x0000000000000000       0x66 /work/opensource/personal/microcontroller/arduino/ArduinoLibraries/ArduinoCore/Release/libArduinoCore.a(WString.o)
 .text._ZN6String6concatEf
                0x0000000000000000       0x64 /work/opensource/personal/microcontroller/arduino/ArduinoLibraries/ArduinoCore/Release/libArduinoCore.a(WString.o)
 .text._ZN6String6concatEd
                0x0000000000000000       0x64 /work/opensource/personal/microcontroller/arduino/ArduinoLibraries/ArduinoCore/Release/libArduinoCore.a(WString.o)
 .text._ZN6String6concatEPK19__FlashStringHelper
                0x0000000000000000       0x5e /work/opensource/personal/microcontroller/arduino/ArduinoLibraries/ArduinoCore/Release/libArduinoCore.a(WString.o)
 .text._ZplRK15StringSumHelperRK6String
                0x0000000000000000       0x26 /work/opensource/personal/microcontroller/arduino/ArduinoLibraries/ArduinoCore/Release/libArduinoCore.a(WString.o)
 .text._ZplRK15StringSumHelperPKc
                0x0000000000000000       0x34 /work/opensource/personal/microcontroller/arduino/ArduinoLibraries/ArduinoCore/Release/libArduinoCore.a(WString.o)
 .text._ZplRK15StringSumHelperc
                0x0000000000000000       0x1c /work/opensource/personal/microcontroller/arduino/ArduinoLibraries/ArduinoCore/Release/libArduinoCore.a(WString.o)
 .text._ZplRK15StringSumHelperh
                0x0000000000000000       0x1c /work/opensource/personal/microcontroller/arduino/ArduinoLibraries/ArduinoCore/Release/libArduinoCore.a(WString.o)
 .text._ZplRK15StringSumHelperi
                0x0000000000000000       0x1c /work/opensource/personal/microcontroller/arduino/ArduinoLibraries/ArduinoCore/Release/libArduinoCore.a(WString.o)
 .text._ZplRK15StringSumHelperj
                0x0000000000000000       0x1c /work/opensource/personal/microcontroller/arduino/ArduinoLibraries/ArduinoCore/Release/libArduinoCore.a(WString.o)
 .text._ZplRK15StringSumHelperl
                0x0000000000000000       0x1c /work/opensource/personal/microcontroller/arduino/ArduinoLibraries/ArduinoCore/Release/libArduinoCore.a(WString.o)
 .text._ZplRK15StringSumHelperm
                0x0000000000000000       0x1c /work/opensource/personal/microcontroller/arduino/ArduinoLibraries/ArduinoCore/Release/libArduinoCore.a(WString.o)
 .text._ZplRK15StringSumHelperf
                0x0000000000000000       0x1c /work/opensource/personal/microcontroller/arduino/ArduinoLibraries/ArduinoCore/Release/libArduinoCore.a(WString.o)
 .text._ZplRK15StringSumHelperd
                0x0000000000000000       0x1c /work/opensource/personal/microcontroller/arduino/ArduinoLibraries/ArduinoCore/Release/libArduinoCore.a(WString.o)
 .text._ZplRK15StringSumHelperPK19__FlashStringHelper
                0x0000000000000000       0x1c /work/opensource/personal/microcontroller/arduino/ArduinoLibraries/ArduinoCore/Release/libArduinoCore.a(WString.o)
 .text._ZNK6String9compareToERKS_
                0x0000000000000000       0x60 /work/opensource/personal/microcontroller/arduino/ArduinoLibraries/ArduinoCore/Release/libArduinoCore.a(WString.o)
 .text._ZNK6String6equalsERKS_
                0x0000000000000000       0x26 /work/opensource/personal/microcontroller/arduino/ArduinoLibraries/ArduinoCore/Release/libArduinoCore.a(WString.o)
 .text._ZNK6String6equalsEPKc
                0x0000000000000000       0x3e /work/opensource/personal/microcontroller/arduino/ArduinoLibraries/ArduinoCore/Release/libArduinoCore.a(WString.o)
 .text._ZNK6StringltERKS_
                0x0000000000000000        0xe /work/opensource/personal/microcontroller/arduino/ArduinoLibraries/ArduinoCore/Release/libArduinoCore.a(WString.o)
 .text._ZNK6StringgtERKS_
                0x0000000000000000       0x12 /work/opensource/personal/microcontroller/arduino/ArduinoLibraries/ArduinoCore/Release/libArduinoCore.a(WString.o)
 .text._ZNK6StringleERKS_
                0x0000000000000000       0x12 /work/opensource/personal/microcontroller/arduino/ArduinoLibraries/ArduinoCore/Release/libArduinoCore.a(WString.o)
 .text._ZNK6StringgeERKS_
                0x0000000000000000       0x10 /work/opensource/personal/microcontroller/arduino/ArduinoLibraries/ArduinoCore/Release/libArduinoCore.a(WString.o)
 .text._ZNK6String16equalsIgnoreCaseERKS_
                0x0000000000000000       0x6a /work/opensource/personal/microcontroller/arduino/ArduinoLibraries/ArduinoCore/Release/libArduinoCore.a(WString.o)
 .text._ZNK6String10startsWithERKS_j
                0x0000000000000000       0x48 /work/opensource/personal/microcontroller/arduino/ArduinoLibraries/ArduinoCore/Release/libArduinoCore.a(WString.o)
 .text._ZNK6String10startsWithERKS_
                0x0000000000000000       0x1e /work/opensource/personal/microcontroller/arduino/ArduinoLibraries/ArduinoCore/Release/libArduinoCore.a(WString.o)
 .text._ZNK6String8endsWithERKS_
                0x0000000000000000       0x42 /work/opensource/personal/microcontroller/arduino/ArduinoLibraries/ArduinoCore/Release/libArduinoCore.a(WString.o)
 .text._ZN6String9setCharAtEjc
                0x0000000000000000       0x1c /work/opensource/personal/microcontroller/arduino/ArduinoLibraries/ArduinoCore/Release/libArduinoCore.a(WString.o)
 .text._ZN6StringixEj
                0x0000000000000000       0x24 /work/opensource/personal/microcontroller/arduino/ArduinoLibraries/ArduinoCore/Release/libArduinoCore.a(WString.o)
 .text._ZNK6StringixEj
                0x0000000000000000       0x22 /work/opensource/personal/microcontroller/arduino/ArduinoLibraries/ArduinoCore/Release/libArduinoCore.a(WString.o)
 .text._ZNK6String6charAtEj
                0x0000000000000000        0x4 /work/opensource/personal/microcontroller/arduino/ArduinoLibraries/ArduinoCore/Release/libArduinoCore.a(WString.o)
 .text._ZNK6String8getBytesEPhjj
                0x0000000000000000       0x54 /work/opensource/personal/microcontroller/arduino/ArduinoLibraries/ArduinoCore/Release/libArduinoCore.a(WString.o)
 .text._ZNK6String7indexOfEcj
                0x0000000000000000       0x34 /work/opensource/personal/microcontroller/arduino/ArduinoLibraries/ArduinoCore/Release/libArduinoCore.a(WString.o)
 .text._ZNK6String7indexOfEc
                0x0000000000000000        0x8 /work/opensource/personal/microcontroller/arduino/ArduinoLibraries/ArduinoCore/Release/libArduinoCore.a(WString.o)
 .text._ZNK6String7indexOfERKS_j
                0x0000000000000000       0x38 /work/opensource/personal/microcontroller/arduino/ArduinoLibraries/ArduinoCore/Release/libArduinoCore.a(WString.o)
 .text._ZNK6String7indexOfERKS_
                0x0000000000000000        0x8 /work/opensource/personal/microcontroller/arduino/ArduinoLibraries/ArduinoCore/Release/libArduinoCore.a(WString.o)
 .text._ZNK6String11lastIndexOfEcj
                0x0000000000000000       0x62 /work/opensource/personal/microcontroller/arduino/ArduinoLibraries/ArduinoCore/Release/libArduinoCore.a(WString.o)
 .text._ZNK6String11lastIndexOfEc
                0x0000000000000000        0xe /work/opensource/personal/microcontroller/arduino/ArduinoLibraries/ArduinoCore/Release/libArduinoCore.a(WString.o)
 .text._ZNK6String11lastIndexOfERKS_j
                0x0000000000000000       0x9c /work/opensource/personal/microcontroller/arduino/ArduinoLibraries/ArduinoCore/Release/libArduinoCore.a(WString.o)
 .text._ZNK6String11lastIndexOfERKS_
                0x0000000000000000       0x14 /work/opensource/personal/microcontroller/arduino/ArduinoLibraries/ArduinoCore/Release/libArduinoCore.a(WString.o)
 .rodata.str1.1
                0x0000000000000000        0x1 /work/opensource/personal/microcontroller/arduino/ArduinoLibraries/ArduinoCore/Release/libArduinoCore.a(WString.o)
 .text._ZNK6String9substringEjj
                0x0000000000000000       0x8a /work/opensource/personal/microcontroller/arduino/ArduinoLibraries/ArduinoCore/Release/libArduinoCore.a(WString.o)
 .text._ZN6String7replaceEcc
                0x0000000000000000       0x1c /work/opensource/personal/microcontroller/arduino/ArduinoLibraries/ArduinoCore/Release/libArduinoCore.a(WString.o)
 .text._ZN6String7replaceERKS_S1_
                0x0000000000000000      0x1e6 /work/opensource/personal/microcontroller/arduino/ArduinoLibraries/ArduinoCore/Release/libArduinoCore.a(WString.o)
 .text._ZN6String6removeEjj
                0x0000000000000000       0x5c /work/opensource/personal/microcontroller/arduino/ArduinoLibraries/ArduinoCore/Release/libArduinoCore.a(WString.o)
 .text._ZN6String6removeEj
                0x0000000000000000        0x8 /work/opensource/personal/microcontroller/arduino/ArduinoLibraries/ArduinoCore/Release/libArduinoCore.a(WString.o)
 .text._ZN6String11toLowerCaseEv
                0x0000000000000000       0x24 /work/opensource/personal/microcontroller/arduino/ArduinoLibraries/ArduinoCore/Release/libArduinoCore.a(WString.o)
 .text._ZN6String11toUpperCaseEv
                0x0000000000000000       0x24 /work/opensource/personal/microcontroller/arduino/ArduinoLibraries/ArduinoCore/Release/libArduinoCore.a(WString.o)
 .text._ZN6String4trimEv
                0x0000000000000000       0xb4 /work/opensource/personal/microcontroller/arduino/ArduinoLibraries/ArduinoCore/Release/libArduinoCore.a(WString.o)
 .text._ZNK6String5toIntEv
                0x0000000000000000       0x16 /work/opensource/personal/microcontroller/arduino/ArduinoLibraries/ArduinoCore/Release/libArduinoCore.a(WString.o)
 .text._ZNK6String7toFloatEv
                0x0000000000000000       0x16 /work/opensource/personal/microcontroller/arduino/ArduinoLibraries/ArduinoCore/Release/libArduinoCore.a(WString.o)
 .bss._ZZN6StringixEjE19dummy_writable_char
                0x0000000000000000        0x1 /work/opensource/personal/microcontroller/arduino/ArduinoLibraries/ArduinoCore/Release/libArduinoCore.a(WString.o)
 .text          0x0000000000000000        0x0 /work/opensource/personal/microcontroller/arduino/ArduinoLibraries/ArduinoCore/Release/libArduinoCore.a(abi.o)
 .bss           0x0000000000000000        0x0 /work/opensource/personal/microcontroller/arduino/ArduinoLibraries/ArduinoCore/Release/libArduinoCore.a(abi.o)
 .text.__cxa_deleted_virtual
                0x0000000000000000        0x4 /work/opensource/personal/microcontroller/arduino/ArduinoLibraries/ArduinoCore/Release/libArduinoCore.a(abi.o)
 .text          0x0000000000000000        0x0 /work/opensource/personal/microcontroller/arduino/ArduinoLibraries/ArduinoCore/Release/libArduinoCore.a(new.o)
 .bss           0x0000000000000000        0x0 /work/opensource/personal/microcontroller/arduino/ArduinoLibraries/ArduinoCore/Release/libArduinoCore.a(new.o)
 .text._Znwj    0x0000000000000000        0x4 /work/opensource/personal/microcontroller/arduino/ArduinoLibraries/ArduinoCore/Release/libArduinoCore.a(new.o)
 .text._Znaj    0x0000000000000000        0x4 /work/opensource/personal/microcontroller/arduino/ArduinoLibraries/ArduinoCore/Release/libArduinoCore.a(new.o)
 .text._ZdaPv   0x0000000000000000        0x4 /work/opensource/personal/microcontroller/arduino/ArduinoLibraries/ArduinoCore/Release/libArduinoCore.a(new.o)
 .text          0x0000000000000000        0x0 /work/opensource/personal/microcontroller/arduino/ArduinoLibraries/ArduinoCore/Release/libArduinoCore.a(wiring.o)
 .bss           0x0000000000000000        0x0 /work/opensource/personal/microcontroller/arduino/ArduinoLibraries/ArduinoCore/Release/libArduinoCore.a(wiring.o)
 .text          0x0000000000000000        0x0 /work/opensource/personal/microcontroller/arduino/ArduinoLibraries/ArduinoCore/Release/libArduinoCore.a(wiring_digital.o)
 .bss           0x0000000000000000        0x0 /work/opensource/personal/microcontroller/arduino/ArduinoLibraries/ArduinoCore/Release/libArduinoCore.a(wiring_digital.o)
 .text.digitalRead
                0x0000000000000000       0x52 /work/opensource/personal/microcontroller/arduino/ArduinoLibraries/ArduinoCore/Release/libArduinoCore.a(wiring_digital.o)
 .text          0x0000000000000000        0x0 /work/opensource/personal/microcontroller/arduino/ArduinoLibraries/ArduinoCore/Release/libArduinoCore.a(twi.o)
 .bss           0x0000000000000000        0x0 /work/opensource/personal/microcontroller/arduino/ArduinoLibraries/ArduinoCore/Release/libArduinoCore.a(twi.o)
 .text.twi_disable
                0x0000000000000000       0x1a /work/opensource/personal/microcontroller/arduino/ArduinoLibraries/ArduinoCore/Release/libArduinoCore.a(twi.o)
 .text.twi_setAddress
                0x0000000000000000        0x8 /work/opensource/personal/microcontroller/arduino/ArduinoLibraries/ArduinoCore/Release/libArduinoCore.a(twi.o)
 .text.twi_setFrequency
                0x0000000000000000       0x26 /work/opensource/personal/microcontroller/arduino/ArduinoLibraries/ArduinoCore/Release/libArduinoCore.a(twi.o)
 .text.twi_attachSlaveRxEvent
                0x0000000000000000        0xa /work/opensource/personal/microcontroller/arduino/ArduinoLibraries/ArduinoCore/Release/libArduinoCore.a(twi.o)
 .text.twi_attachSlaveTxEvent
                0x0000000000000000        0xa /work/opensource/personal/microcontroller/arduino/ArduinoLibraries/ArduinoCore/Release/libArduinoCore.a(twi.o)
 .text.twi_reply
                0x0000000000000000       0x10 /work/opensource/personal/microcontroller/arduino/ArduinoLibraries/ArduinoCore/Release/libArduinoCore.a(twi.o)
 .text          0x0000000000000000        0x0 /work/opensource/personal/microcontroller/arduino/ArduinoLibraries/ArduinoCore/Release/libArduinoCore.a(hooks.o)
 .bss           0x0000000000000000        0x0 /work/opensource/personal/microcontroller/arduino/ArduinoLibraries/ArduinoCore/Release/libArduinoCore.a(hooks.o)
 .text          0x0000000000000000        0x0 /usr/lib/gcc/avr/4.8.1/avr5/libgcc.a(_udivmodhi4.o)
 .bss           0x0000000000000000        0x0 /usr/lib/gcc/avr/4.8.1/avr5/libgcc.a(_udivmodhi4.o)
 .text.libgcc.mul
                0x0000000000000000        0x0 /usr/lib/gcc/avr/4.8.1/avr5/libgcc.a(_udivmodhi4.o)
 .text.libgcc   0x0000000000000000        0x0 /usr/lib/gcc/avr/4.8.1/avr5/libgcc.a(_udivmodhi4.o)
 .text.libgcc.prologue
                0x0000000000000000        0x0 /usr/lib/gcc/avr/4.8.1/avr5/libgcc.a(_udivmodhi4.o)
 .text.libgcc.builtins
                0x0000000000000000        0x0 /usr/lib/gcc/avr/4.8.1/avr5/libgcc.a(_udivmodhi4.o)
 .text.libgcc.fmul
                0x0000000000000000        0x0 /usr/lib/gcc/avr/4.8.1/avr5/libgcc.a(_udivmodhi4.o)
 .text.libgcc.fixed
                0x0000000000000000        0x0 /usr/lib/gcc/avr/4.8.1/avr5/libgcc.a(_udivmodhi4.o)
 .text          0x0000000000000000        0x0 /usr/lib/gcc/avr/4.8.1/avr5/libgcc.a(_divmodhi4.o)
 .bss           0x0000000000000000        0x0 /usr/lib/gcc/avr/4.8.1/avr5/libgcc.a(_divmodhi4.o)
 .text.libgcc.mul
                0x0000000000000000        0x0 /usr/lib/gcc/avr/4.8.1/avr5/libgcc.a(_divmodhi4.o)
 .text.libgcc   0x0000000000000000        0x0 /usr/lib/gcc/avr/4.8.1/avr5/libgcc.a(_divmodhi4.o)
 .text.libgcc.prologue
                0x0000000000000000        0x0 /usr/lib/gcc/avr/4.8.1/avr5/libgcc.a(_divmodhi4.o)
 .text.libgcc.builtins
                0x0000000000000000        0x0 /usr/lib/gcc/avr/4.8.1/avr5/libgcc.a(_divmodhi4.o)
 .text.libgcc.fmul
                0x0000000000000000        0x0 /usr/lib/gcc/avr/4.8.1/avr5/libgcc.a(_divmodhi4.o)
 .text.libgcc.fixed
                0x0000000000000000        0x0 /usr/lib/gcc/avr/4.8.1/avr5/libgcc.a(_divmodhi4.o)
 .text          0x0000000000000000        0x0 /usr/lib/gcc/avr/4.8.1/avr5/libgcc.a(_udivmodsi4.o)
 .bss           0x0000000000000000        0x0 /usr/lib/gcc/avr/4.8.1/avr5/libgcc.a(_udivmodsi4.o)
 .text.libgcc.mul
                0x0000000000000000        0x0 /usr/lib/gcc/avr/4.8.1/avr5/libgcc.a(_udivmodsi4.o)
 .text.libgcc   0x0000000000000000        0x0 /usr/lib/gcc/avr/4.8.1/avr5/libgcc.a(_udivmodsi4.o)
 .text.libgcc.prologue
                0x0000000000000000        0x0 /usr/lib/gcc/avr/4.8.1/avr5/libgcc.a(_udivmodsi4.o)
 .text.libgcc.builtins
                0x0000000000000000        0x0 /usr/lib/gcc/avr/4.8.1/avr5/libgcc.a(_udivmodsi4.o)
 .text.libgcc.fmul
                0x0000000000000000        0x0 /usr/lib/gcc/avr/4.8.1/avr5/libgcc.a(_udivmodsi4.o)
 .text.libgcc.fixed
                0x0000000000000000        0x0 /usr/lib/gcc/avr/4.8.1/avr5/libgcc.a(_udivmodsi4.o)
 .text          0x0000000000000000        0x0 /usr/lib/gcc/avr/4.8.1/avr5/libgcc.a(_exit.o)
 .bss           0x0000000000000000        0x0 /usr/lib/gcc/avr/4.8.1/avr5/libgcc.a(_exit.o)
 .text.libgcc.mul
                0x0000000000000000        0x0 /usr/lib/gcc/avr/4.8.1/avr5/libgcc.a(_exit.o)
 .text.libgcc.div
                0x0000000000000000        0x0 /usr/lib/gcc/avr/4.8.1/avr5/libgcc.a(_exit.o)
 .text.libgcc   0x0000000000000000        0x0 /usr/lib/gcc/avr/4.8.1/avr5/libgcc.a(_exit.o)
 .text.libgcc.prologue
                0x0000000000000000        0x0 /usr/lib/gcc/avr/4.8.1/avr5/libgcc.a(_exit.o)
 .text.libgcc.builtins
                0x0000000000000000        0x0 /usr/lib/gcc/avr/4.8.1/avr5/libgcc.a(_exit.o)
 .text.libgcc.fmul
                0x0000000000000000        0x0 /usr/lib/gcc/avr/4.8.1/avr5/libgcc.a(_exit.o)
 .text.libgcc.fixed
                0x0000000000000000        0x0 /usr/lib/gcc/avr/4.8.1/avr5/libgcc.a(_exit.o)
 .text          0x0000000000000000        0x0 /usr/lib/gcc/avr/4.8.1/avr5/libgcc.a(_tablejump.o)
 .bss           0x0000000000000000        0x0 /usr/lib/gcc/avr/4.8.1/avr5/libgcc.a(_tablejump.o)
 .text.libgcc.mul
                0x0000000000000000        0x0 /usr/lib/gcc/avr/4.8.1/avr5/libgcc.a(_tablejump.o)
 .text.libgcc.div
                0x0000000000000000        0x0 /usr/lib/gcc/avr/4.8.1/avr5/libgcc.a(_tablejump.o)
 .text.libgcc.prologue
                0x0000000000000000        0x0 /usr/lib/gcc/avr/4.8.1/avr5/libgcc.a(_tablejump.o)
 .text.libgcc.builtins
                0x0000000000000000        0x0 /usr/lib/gcc/avr/4.8.1/avr5/libgcc.a(_tablejump.o)
 .text.libgcc.fmul
                0x0000000000000000        0x0 /usr/lib/gcc/avr/4.8.1/avr5/libgcc.a(_tablejump.o)
 .text.libgcc.fixed
                0x0000000000000000        0x0 /usr/lib/gcc/avr/4.8.1/avr5/libgcc.a(_tablejump.o)
 .text          0x0000000000000000        0x0 /usr/lib/gcc/avr/4.8.1/avr5/libgcc.a(_copy_data.o)
 .bss           0x0000000000000000        0x0 /usr/lib/gcc/avr/4.8.1/avr5/libgcc.a(_copy_data.o)
 .text.libgcc.mul
                0x0000000000000000        0x0 /usr/lib/gcc/avr/4.8.1/avr5/libgcc.a(_copy_data.o)
 .text.libgcc.div
                0x0000000000000000        0x0 /usr/lib/gcc/avr/4.8.1/avr5/libgcc.a(_copy_data.o)
 .text.libgcc   0x0000000000000000        0x0 /usr/lib/gcc/avr/4.8.1/avr5/libgcc.a(_copy_data.o)
 .text.libgcc.prologue
                0x0000000000000000        0x0 /usr/lib/gcc/avr/4.8.1/avr5/libgcc.a(_copy_data.o)
 .text.libgcc.builtins
                0x0000000000000000        0x0 /usr/lib/gcc/avr/4.8.1/avr5/libgcc.a(_copy_data.o)
 .text.libgcc.fmul
                0x0000000000000000        0x0 /usr/lib/gcc/avr/4.8.1/avr5/libgcc.a(_copy_data.o)
 .text.libgcc.fixed
                0x0000000000000000        0x0 /usr/lib/gcc/avr/4.8.1/avr5/libgcc.a(_copy_data.o)
 .text          0x0000000000000000        0x0 /usr/lib/gcc/avr/4.8.1/avr5/libgcc.a(_clear_bss.o)
 .bss           0x0000000000000000        0x0 /usr/lib/gcc/avr/4.8.1/avr5/libgcc.a(_clear_bss.o)
 .text.libgcc.mul
                0x0000000000000000        0x0 /usr/lib/gcc/avr/4.8.1/avr5/libgcc.a(_clear_bss.o)
 .text.libgcc.div
                0x0000000000000000        0x0 /usr/lib/gcc/avr/4.8.1/avr5/libgcc.a(_clear_bss.o)
 .text.libgcc   0x0000000000000000        0x0 /usr/lib/gcc/avr/4.8.1/avr5/libgcc.a(_clear_bss.o)
 .text.libgcc.prologue
                0x0000000000000000        0x0 /usr/lib/gcc/avr/4.8.1/avr5/libgcc.a(_clear_bss.o)
 .text.libgcc.builtins
                0x0000000000000000        0x0 /usr/lib/gcc/avr/4.8.1/avr5/libgcc.a(_clear_bss.o)
 .text.libgcc.fmul
                0x0000000000000000        0x0 /usr/lib/gcc/avr/4.8.1/avr5/libgcc.a(_clear_bss.o)
 .text.libgcc.fixed
                0x0000000000000000        0x0 /usr/lib/gcc/avr/4.8.1/avr5/libgcc.a(_clear_bss.o)
 .text          0x0000000000000000        0x0 /usr/lib/gcc/avr/4.8.1/avr5/libgcc.a(_ctors.o)
 .bss           0x0000000000000000        0x0 /usr/lib/gcc/avr/4.8.1/avr5/libgcc.a(_ctors.o)
 .text.libgcc.mul
                0x0000000000000000        0x0 /usr/lib/gcc/avr/4.8.1/avr5/libgcc.a(_ctors.o)
 .text.libgcc.div
                0x0000000000000000        0x0 /usr/lib/gcc/avr/4.8.1/avr5/libgcc.a(_ctors.o)
 .text.libgcc   0x0000000000000000        0x0 /usr/lib/gcc/avr/4.8.1/avr5/libgcc.a(_ctors.o)
 .text.libgcc.prologue
                0x0000000000000000        0x0 /usr/lib/gcc/avr/4.8.1/avr5/libgcc.a(_ctors.o)
 .text.libgcc.builtins
                0x0000000000000000        0x0 /usr/lib/gcc/avr/4.8.1/avr5/libgcc.a(_ctors.o)
 .text.libgcc.fmul
                0x0000000000000000        0x0 /usr/lib/gcc/avr/4.8.1/avr5/libgcc.a(_ctors.o)
 .text.libgcc.fixed
                0x0000000000000000        0x0 /usr/lib/gcc/avr/4.8.1/avr5/libgcc.a(_ctors.o)
 .text          0x0000000000000000        0x0 /usr/lib/gcc/avr/4.8.1/avr5/libgcc.a(_dtors.o)
 .bss           0x0000000000000000        0x0 /usr/lib/gcc/avr/4.8.1/avr5/libgcc.a(_dtors.o)
 .text.libgcc.mul
                0x0000000000000000        0x0 /usr/lib/gcc/avr/4.8.1/avr5/libgcc.a(_dtors.o)
 .text.libgcc.div
                0x0000000000000000        0x0 /usr/lib/gcc/avr/4.8.1/avr5/libgcc.a(_dtors.o)
 .text.libgcc   0x0000000000000000        0x0 /usr/lib/gcc/avr/4.8.1/avr5/libgcc.a(_dtors.o)
 .text.libgcc.prologue
                0x0000000000000000        0x0 /usr/lib/gcc/avr/4.8.1/avr5/libgcc.a(_dtors.o)
 .text.libgcc.builtins
                0x0000000000000000        0x0 /usr/lib/gcc/avr/4.8.1/avr5/libgcc.a(_dtors.o)
 .text.libgcc.fmul
                0x0000000000000000        0x0 /usr/lib/gcc/avr/4.8.1/avr5/libgcc.a(_dtors.o)
 .text.libgcc.fixed
                0x0000000000000000        0x0 /usr/lib/gcc/avr/4.8.1/avr5/libgcc.a(_dtors.o)
 .text          0x0000000000000000        0x0 /usr/lib/gcc/avr/4.8.1/avr5/libgcc.a(_muluhisi3.o)
 .bss           0x0000000000000000        0x0 /usr/lib/gcc/avr/4.8.1/avr5/libgcc.a(_muluhisi3.o)
 .text.libgcc.mul
                0x0000000000000000       0x16 /usr/lib/gcc/avr/4.8.1/avr5/libgcc.a(_muluhisi3.o)
 .text.libgcc.div
                0x0000000000000000        0x0 /usr/lib/gcc/avr/4.8.1/avr5/libgcc.a(_muluhisi3.o)
 .text.libgcc   0x0000000000000000        0x0 /usr/lib/gcc/avr/4.8.1/avr5/libgcc.a(_muluhisi3.o)
 .text.libgcc.prologue
                0x0000000000000000        0x0 /usr/lib/gcc/avr/4.8.1/avr5/libgcc.a(_muluhisi3.o)
 .text.libgcc.builtins
                0x0000000000000000        0x0 /usr/lib/gcc/avr/4.8.1/avr5/libgcc.a(_muluhisi3.o)
 .text.libgcc.fmul
                0x0000000000000000        0x0 /usr/lib/gcc/avr/4.8.1/avr5/libgcc.a(_muluhisi3.o)
 .text.libgcc.fixed
                0x0000000000000000        0x0 /usr/lib/gcc/avr/4.8.1/avr5/libgcc.a(_muluhisi3.o)
 .text          0x0000000000000000        0x0 /usr/lib/gcc/avr/4.8.1/avr5/libgcc.a(_umulhisi3.o)
 .bss           0x0000000000000000        0x0 /usr/lib/gcc/avr/4.8.1/avr5/libgcc.a(_umulhisi3.o)
 .text.libgcc.mul
                0x0000000000000000       0x1e /usr/lib/gcc/avr/4.8.1/avr5/libgcc.a(_umulhisi3.o)
 .text.libgcc.div
                0x0000000000000000        0x0 /usr/lib/gcc/avr/4.8.1/avr5/libgcc.a(_umulhisi3.o)
 .text.libgcc   0x0000000000000000        0x0 /usr/lib/gcc/avr/4.8.1/avr5/libgcc.a(_umulhisi3.o)
 .text.libgcc.prologue
                0x0000000000000000        0x0 /usr/lib/gcc/avr/4.8.1/avr5/libgcc.a(_umulhisi3.o)
 .text.libgcc.builtins
                0x0000000000000000        0x0 /usr/lib/gcc/avr/4.8.1/avr5/libgcc.a(_umulhisi3.o)
 .text.libgcc.fmul
                0x0000000000000000        0x0 /usr/lib/gcc/avr/4.8.1/avr5/libgcc.a(_umulhisi3.o)
 .text.libgcc.fixed
                0x0000000000000000        0x0 /usr/lib/gcc/avr/4.8.1/avr5/libgcc.a(_umulhisi3.o)
 .text          0x0000000000000000        0x0 /usr/lib/gcc/avr/4.8.1/../../../avr/lib/avr5/libm.a(addsf3.o)
 .bss           0x0000000000000000        0x0 /usr/lib/gcc/avr/4.8.1/../../../avr/lib/avr5/libm.a(addsf3.o)
 .text.avr-libc.fplib
                0x0000000000000000        0xa /usr/lib/gcc/avr/4.8.1/../../../avr/lib/avr5/libm.a(addsf3.o)
 .text          0x0000000000000000        0x0 /usr/lib/gcc/avr/4.8.1/../../../avr/lib/avr5/libm.a(addsf3x.o)
 .bss           0x0000000000000000        0x0 /usr/lib/gcc/avr/4.8.1/../../../avr/lib/avr5/libm.a(addsf3x.o)
 .text.avr-libc.fplib
                0x0000000000000000       0xc0 /usr/lib/gcc/avr/4.8.1/../../../avr/lib/avr5/libm.a(addsf3x.o)
 .text          0x0000000000000000        0x0 /usr/lib/gcc/avr/4.8.1/../../../avr/lib/avr5/libm.a(cmpsf2.o)
 .bss           0x0000000000000000        0x0 /usr/lib/gcc/avr/4.8.1/../../../avr/lib/avr5/libm.a(cmpsf2.o)
 .text.avr-libc.fplib
                0x0000000000000000        0x8 /usr/lib/gcc/avr/4.8.1/../../../avr/lib/avr5/libm.a(cmpsf2.o)
 .text          0x0000000000000000        0x0 /usr/lib/gcc/avr/4.8.1/../../../avr/lib/avr5/libm.a(divsf3.o)
 .bss           0x0000000000000000        0x0 /usr/lib/gcc/avr/4.8.1/../../../avr/lib/avr5/libm.a(divsf3.o)
 .text          0x0000000000000000        0x0 /usr/lib/gcc/avr/4.8.1/../../../avr/lib/avr5/libm.a(divsf3x.o)
 .bss           0x0000000000000000        0x0 /usr/lib/gcc/avr/4.8.1/../../../avr/lib/avr5/libm.a(divsf3x.o)
 .text          0x0000000000000000        0x0 /usr/lib/gcc/avr/4.8.1/../../../avr/lib/avr5/libm.a(fixsfsi.o)
 .bss           0x0000000000000000        0x0 /usr/lib/gcc/avr/4.8.1/../../../avr/lib/avr5/libm.a(fixsfsi.o)
 .text.avr-libc.fplib
                0x0000000000000000        0xa /usr/lib/gcc/avr/4.8.1/../../../avr/lib/avr5/libm.a(fixsfsi.o)
 .text          0x0000000000000000        0x0 /usr/lib/gcc/avr/4.8.1/../../../avr/lib/avr5/libm.a(fixunssfsi.o)
 .bss           0x0000000000000000        0x0 /usr/lib/gcc/avr/4.8.1/../../../avr/lib/avr5/libm.a(fixunssfsi.o)
 .text.avr-libc.fplib
                0x0000000000000000       0x58 /usr/lib/gcc/avr/4.8.1/../../../avr/lib/avr5/libm.a(fixunssfsi.o)
 .text          0x0000000000000000        0x0 /usr/lib/gcc/avr/4.8.1/../../../avr/lib/avr5/libm.a(floatsisf.o)
 .bss           0x0000000000000000        0x0 /usr/lib/gcc/avr/4.8.1/../../../avr/lib/avr5/libm.a(floatsisf.o)
 .text          0x0000000000000000        0x0 /usr/lib/gcc/avr/4.8.1/../../../avr/lib/avr5/libm.a(fp_cmp.o)
 .bss           0x0000000000000000        0x0 /usr/lib/gcc/avr/4.8.1/../../../avr/lib/avr5/libm.a(fp_cmp.o)
 .text.avr-libc.fplib
                0x0000000000000000       0x48 /usr/lib/gcc/avr/4.8.1/../../../avr/lib/avr5/libm.a(fp_cmp.o)
 .text          0x0000000000000000        0x0 /usr/lib/gcc/avr/4.8.1/../../../avr/lib/avr5/libm.a(fp_inf.o)
 .bss           0x0000000000000000        0x0 /usr/lib/gcc/avr/4.8.1/../../../avr/lib/avr5/libm.a(fp_inf.o)
 .text          0x0000000000000000        0x0 /usr/lib/gcc/avr/4.8.1/../../../avr/lib/avr5/libm.a(fp_nan.o)
 .bss           0x0000000000000000        0x0 /usr/lib/gcc/avr/4.8.1/../../../avr/lib/avr5/libm.a(fp_nan.o)
 .text          0x0000000000000000        0x0 /usr/lib/gcc/avr/4.8.1/../../../avr/lib/avr5/libm.a(fp_pscA.o)
 .bss           0x0000000000000000        0x0 /usr/lib/gcc/avr/4.8.1/../../../avr/lib/avr5/libm.a(fp_pscA.o)
 .text          0x0000000000000000        0x0 /usr/lib/gcc/avr/4.8.1/../../../avr/lib/avr5/libm.a(fp_pscB.o)
 .bss           0x0000000000000000        0x0 /usr/lib/gcc/avr/4.8.1/../../../avr/lib/avr5/libm.a(fp_pscB.o)
 .text          0x0000000000000000        0x0 /usr/lib/gcc/avr/4.8.1/../../../avr/lib/avr5/libm.a(fp_round.o)
 .bss           0x0000000000000000        0x0 /usr/lib/gcc/avr/4.8.1/../../../avr/lib/avr5/libm.a(fp_round.o)
 .text          0x0000000000000000        0x0 /usr/lib/gcc/avr/4.8.1/../../../avr/lib/avr5/libm.a(fp_split3.o)
 .bss           0x0000000000000000        0x0 /usr/lib/gcc/avr/4.8.1/../../../avr/lib/avr5/libm.a(fp_split3.o)
 .text          0x0000000000000000        0x0 /usr/lib/gcc/avr/4.8.1/../../../avr/lib/avr5/libm.a(fp_zero.o)
 .bss           0x0000000000000000        0x0 /usr/lib/gcc/avr/4.8.1/../../../avr/lib/avr5/libm.a(fp_zero.o)
 .text          0x0000000000000000        0x0 /usr/lib/gcc/avr/4.8.1/../../../avr/lib/avr5/libm.a(gesf2.o)
 .bss           0x0000000000000000        0x0 /usr/lib/gcc/avr/4.8.1/../../../avr/lib/avr5/libm.a(gesf2.o)
 .text.avr-libc.fplib
                0x0000000000000000        0x8 /usr/lib/gcc/avr/4.8.1/../../../avr/lib/avr5/libm.a(gesf2.o)
 .text          0x0000000000000000        0x0 /usr/lib/gcc/avr/4.8.1/../../../avr/lib/avr5/libm.a(mulsf3.o)
 .bss           0x0000000000000000        0x0 /usr/lib/gcc/avr/4.8.1/../../../avr/lib/avr5/libm.a(mulsf3.o)
 .text.avr-libc.fplib
                0x0000000000000000        0x4 /usr/lib/gcc/avr/4.8.1/../../../avr/lib/avr5/libm.a(mulsf3.o)
 .text          0x0000000000000000        0x0 /usr/lib/gcc/avr/4.8.1/../../../avr/lib/avr5/libm.a(mulsf3x.o)
 .bss           0x0000000000000000        0x0 /usr/lib/gcc/avr/4.8.1/../../../avr/lib/avr5/libm.a(mulsf3x.o)
 .text.avr-libc.fplib
                0x0000000000000000       0xc2 /usr/lib/gcc/avr/4.8.1/../../../avr/lib/avr5/libm.a(mulsf3x.o)
 .text          0x0000000000000000        0x0 /usr/lib/gcc/avr/4.8.1/../../../avr/lib/avr5/libm.a(unordsf2.o)
 .bss           0x0000000000000000        0x0 /usr/lib/gcc/avr/4.8.1/../../../avr/lib/avr5/libm.a(unordsf2.o)
 .text.avr-libc.fplib
                0x0000000000000000        0x8 /usr/lib/gcc/avr/4.8.1/../../../avr/lib/avr5/libm.a(unordsf2.o)
 .text          0x0000000000000000        0x0 /usr/lib/gcc/avr/4.8.1/../../../avr/lib/avr5/libc.a(dtostrf.o)
 .bss           0x0000000000000000        0x0 /usr/lib/gcc/avr/4.8.1/../../../avr/lib/avr5/libc.a(dtostrf.o)
 .text.avr-libc
                0x0000000000000000       0x42 /usr/lib/gcc/avr/4.8.1/../../../avr/lib/avr5/libc.a(dtostrf.o)
 .text          0x0000000000000000        0x0 /usr/lib/gcc/avr/4.8.1/../../../avr/lib/avr5/libc.a(malloc.o)
 .bss           0x0000000000000000        0x0 /usr/lib/gcc/avr/4.8.1/../../../avr/lib/avr5/libc.a(malloc.o)
 .text          0x0000000000000000        0x0 /usr/lib/gcc/avr/4.8.1/../../../avr/lib/avr5/libc.a(realloc.o)
 .bss           0x0000000000000000        0x0 /usr/lib/gcc/avr/4.8.1/../../../avr/lib/avr5/libc.a(realloc.o)
 .text.avr-libc
                0x0000000000000000      0x194 /usr/lib/gcc/avr/4.8.1/../../../avr/lib/avr5/libc.a(realloc.o)
 .text          0x0000000000000000        0x0 /usr/lib/gcc/avr/4.8.1/../../../avr/lib/avr5/libc.a(abort.o)
 .bss           0x0000000000000000        0x0 /usr/lib/gcc/avr/4.8.1/../../../avr/lib/avr5/libc.a(abort.o)
 .text          0x0000000000000000        0x0 /usr/lib/gcc/avr/4.8.1/../../../avr/lib/avr5/libc.a(atof.o)
 .bss           0x0000000000000000        0x0 /usr/lib/gcc/avr/4.8.1/../../../avr/lib/avr5/libc.a(atof.o)
 .text.avr-libc
                0x0000000000000000        0x8 /usr/lib/gcc/avr/4.8.1/../../../avr/lib/avr5/libc.a(atof.o)
 .text          0x0000000000000000        0x0 /usr/lib/gcc/avr/4.8.1/../../../avr/lib/avr5/libc.a(atol.o)
 .bss           0x0000000000000000        0x0 /usr/lib/gcc/avr/4.8.1/../../../avr/lib/avr5/libc.a(atol.o)
 .text.avr-libc
                0x0000000000000000       0x4e /usr/lib/gcc/avr/4.8.1/../../../avr/lib/avr5/libc.a(atol.o)
 .text          0x0000000000000000        0x0 /usr/lib/gcc/avr/4.8.1/../../../avr/lib/avr5/libc.a(isspace.o)
 .bss           0x0000000000000000        0x0 /usr/lib/gcc/avr/4.8.1/../../../avr/lib/avr5/libc.a(isspace.o)
 .text.avr-libc
                0x0000000000000000       0x10 /usr/lib/gcc/avr/4.8.1/../../../avr/lib/avr5/libc.a(isspace.o)
 .text          0x0000000000000000        0x0 /usr/lib/gcc/avr/4.8.1/../../../avr/lib/avr5/libc.a(tolower.o)
 .bss           0x0000000000000000        0x0 /usr/lib/gcc/avr/4.8.1/../../../avr/lib/avr5/libc.a(tolower.o)
 .text.avr-libc
                0x0000000000000000       0x10 /usr/lib/gcc/avr/4.8.1/../../../avr/lib/avr5/libc.a(tolower.o)
 .text          0x0000000000000000        0x0 /usr/lib/gcc/avr/4.8.1/../../../avr/lib/avr5/libc.a(toupper.o)
 .bss           0x0000000000000000        0x0 /usr/lib/gcc/avr/4.8.1/../../../avr/lib/avr5/libc.a(toupper.o)
 .text.avr-libc
                0x0000000000000000       0x10 /usr/lib/gcc/avr/4.8.1/../../../avr/lib/avr5/libc.a(toupper.o)
 .text          0x0000000000000000        0x0 /usr/lib/gcc/avr/4.8.1/../../../avr/lib/avr5/libc.a(strcpy_P.o)
 .bss           0x0000000000000000        0x0 /usr/lib/gcc/avr/4.8.1/../../../avr/lib/avr5/libc.a(strcpy_P.o)
 .text.avr-libc
                0x0000000000000000        0xe /usr/lib/gcc/avr/4.8.1/../../../avr/lib/avr5/libc.a(strcpy_P.o)
 .text          0x0000000000000000        0x0 /usr/lib/gcc/avr/4.8.1/../../../avr/lib/avr5/libc.a(strlen_P.o)
 .bss           0x0000000000000000        0x0 /usr/lib/gcc/avr/4.8.1/../../../avr/lib/avr5/libc.a(strlen_P.o)
 .text.avr-libc
                0x0000000000000000       0x12 /usr/lib/gcc/avr/4.8.1/../../../avr/lib/avr5/libc.a(strlen_P.o)
 .text          0x0000000000000000        0x0 /usr/lib/gcc/avr/4.8.1/../../../avr/lib/avr5/libc.a(memcpy.o)
 .bss           0x0000000000000000        0x0 /usr/lib/gcc/avr/4.8.1/../../../avr/lib/avr5/libc.a(memcpy.o)
 .text          0x0000000000000000        0x0 /usr/lib/gcc/avr/4.8.1/../../../avr/lib/avr5/libc.a(memmove.o)
 .bss           0x0000000000000000        0x0 /usr/lib/gcc/avr/4.8.1/../../../avr/lib/avr5/libc.a(memmove.o)
 .text.avr-libc
                0x0000000000000000       0x24 /usr/lib/gcc/avr/4.8.1/../../../avr/lib/avr5/libc.a(memmove.o)
 .text          0x0000000000000000        0x0 /usr/lib/gcc/avr/4.8.1/../../../avr/lib/avr5/libc.a(strchr.o)
 .bss           0x0000000000000000        0x0 /usr/lib/gcc/avr/4.8.1/../../../avr/lib/avr5/libc.a(strchr.o)
 .text.avr-libc
                0x0000000000000000       0x16 /usr/lib/gcc/avr/4.8.1/../../../avr/lib/avr5/libc.a(strchr.o)
 .text          0x0000000000000000        0x0 /usr/lib/gcc/avr/4.8.1/../../../avr/lib/avr5/libc.a(strcmp.o)
 .bss           0x0000000000000000        0x0 /usr/lib/gcc/avr/4.8.1/../../../avr/lib/avr5/libc.a(strcmp.o)
 .text.avr-libc
                0x0000000000000000       0x12 /usr/lib/gcc/avr/4.8.1/../../../avr/lib/avr5/libc.a(strcmp.o)
 .text          0x0000000000000000        0x0 /usr/lib/gcc/avr/4.8.1/../../../avr/lib/avr5/libc.a(strcpy.o)
 .bss           0x0000000000000000        0x0 /usr/lib/gcc/avr/4.8.1/../../../avr/lib/avr5/libc.a(strcpy.o)
 .text.avr-libc
                0x0000000000000000        0xe /usr/lib/gcc/avr/4.8.1/../../../avr/lib/avr5/libc.a(strcpy.o)
 .text          0x0000000000000000        0x0 /usr/lib/gcc/avr/4.8.1/../../../avr/lib/avr5/libc.a(strncmp.o)
 .bss           0x0000000000000000        0x0 /usr/lib/gcc/avr/4.8.1/../../../avr/lib/avr5/libc.a(strncmp.o)
 .text.avr-libc
                0x0000000000000000       0x1c /usr/lib/gcc/avr/4.8.1/../../../avr/lib/avr5/libc.a(strncmp.o)
 .text          0x0000000000000000        0x0 /usr/lib/gcc/avr/4.8.1/../../../avr/lib/avr5/libc.a(strncpy.o)
 .bss           0x0000000000000000        0x0 /usr/lib/gcc/avr/4.8.1/../../../avr/lib/avr5/libc.a(strncpy.o)
 .text.avr-libc
                0x0000000000000000       0x1e /usr/lib/gcc/avr/4.8.1/../../../avr/lib/avr5/libc.a(strncpy.o)
 .text          0x0000000000000000        0x0 /usr/lib/gcc/avr/4.8.1/../../../avr/lib/avr5/libc.a(strrchr.o)
 .bss           0x0000000000000000        0x0 /usr/lib/gcc/avr/4.8.1/../../../avr/lib/avr5/libc.a(strrchr.o)
 .text.avr-libc
                0x0000000000000000       0x16 /usr/lib/gcc/avr/4.8.1/../../../avr/lib/avr5/libc.a(strrchr.o)
 .text          0x0000000000000000        0x0 /usr/lib/gcc/avr/4.8.1/../../../avr/lib/avr5/libc.a(strstr.o)
 .bss           0x0000000000000000        0x0 /usr/lib/gcc/avr/4.8.1/../../../avr/lib/avr5/libc.a(strstr.o)
 .text.avr-libc
                0x0000000000000000       0x34 /usr/lib/gcc/avr/4.8.1/../../../avr/lib/avr5/libc.a(strstr.o)
 .text          0x0000000000000000        0x0 /usr/lib/gcc/avr/4.8.1/../../../avr/lib/avr5/libc.a(itoa.o)
 .bss           0x0000000000000000        0x0 /usr/lib/gcc/avr/4.8.1/../../../avr/lib/avr5/libc.a(itoa.o)
 .text.avr-libc
                0x0000000000000000       0x16 /usr/lib/gcc/avr/4.8.1/../../../avr/lib/avr5/libc.a(itoa.o)
 .text          0x0000000000000000        0x0 /usr/lib/gcc/avr/4.8.1/../../../avr/lib/avr5/libc.a(itoa_ncheck.o)
 .bss           0x0000000000000000        0x0 /usr/lib/gcc/avr/4.8.1/../../../avr/lib/avr5/libc.a(itoa_ncheck.o)
 .text.avr-libc
                0x0000000000000000       0x16 /usr/lib/gcc/avr/4.8.1/../../../avr/lib/avr5/libc.a(itoa_ncheck.o)
 .text          0x0000000000000000        0x0 /usr/lib/gcc/avr/4.8.1/../../../avr/lib/avr5/libc.a(ltoa.o)
 .bss           0x0000000000000000        0x0 /usr/lib/gcc/avr/4.8.1/../../../avr/lib/avr5/libc.a(ltoa.o)
 .text.avr-libc
                0x0000000000000000       0x16 /usr/lib/gcc/avr/4.8.1/../../../avr/lib/avr5/libc.a(ltoa.o)
 .text          0x0000000000000000        0x0 /usr/lib/gcc/avr/4.8.1/../../../avr/lib/avr5/libc.a(ltoa_ncheck.o)
 .bss           0x0000000000000000        0x0 /usr/lib/gcc/avr/4.8.1/../../../avr/lib/avr5/libc.a(ltoa_ncheck.o)
 .text.avr-libc
                0x0000000000000000       0x1e /usr/lib/gcc/avr/4.8.1/../../../avr/lib/avr5/libc.a(ltoa_ncheck.o)
 .text          0x0000000000000000        0x0 /usr/lib/gcc/avr/4.8.1/../../../avr/lib/avr5/libc.a(mulsi10.o)
 .bss           0x0000000000000000        0x0 /usr/lib/gcc/avr/4.8.1/../../../avr/lib/avr5/libc.a(mulsi10.o)
 .text.avr-libc
                0x0000000000000000       0x2a /usr/lib/gcc/avr/4.8.1/../../../avr/lib/avr5/libc.a(mulsi10.o)
 .text          0x0000000000000000        0x0 /usr/lib/gcc/avr/4.8.1/../../../avr/lib/avr5/libc.a(ultoa.o)
 .bss           0x0000000000000000        0x0 /usr/lib/gcc/avr/4.8.1/../../../avr/lib/avr5/libc.a(ultoa.o)
 .text.avr-libc
                0x0000000000000000       0x16 /usr/lib/gcc/avr/4.8.1/../../../avr/lib/avr5/libc.a(ultoa.o)
 .text          0x0000000000000000        0x0 /usr/lib/gcc/avr/4.8.1/../../../avr/lib/avr5/libc.a(ultoa_ncheck.o)
 .bss           0x0000000000000000        0x0 /usr/lib/gcc/avr/4.8.1/../../../avr/lib/avr5/libc.a(ultoa_ncheck.o)
 .text.avr-libc
                0x0000000000000000       0x44 /usr/lib/gcc/avr/4.8.1/../../../avr/lib/avr5/libc.a(ultoa_ncheck.o)
 .text          0x0000000000000000        0x0 /usr/lib/gcc/avr/4.8.1/../../../avr/lib/avr5/libc.a(utoa.o)
 .bss           0x0000000000000000        0x0 /usr/lib/gcc/avr/4.8.1/../../../avr/lib/avr5/libc.a(utoa.o)
 .text.avr-libc
                0x0000000000000000       0x16 /usr/lib/gcc/avr/4.8.1/../../../avr/lib/avr5/libc.a(utoa.o)
 .text          0x0000000000000000        0x0 /usr/lib/gcc/avr/4.8.1/../../../avr/lib/avr5/libc.a(utoa_ncheck.o)
 .bss           0x0000000000000000        0x0 /usr/lib/gcc/avr/4.8.1/../../../avr/lib/avr5/libc.a(utoa_ncheck.o)
 .text.avr-libc
                0x0000000000000000       0x34 /usr/lib/gcc/avr/4.8.1/../../../avr/lib/avr5/libc.a(utoa_ncheck.o)
 .text          0x0000000000000000        0x0 /usr/lib/gcc/avr/4.8.1/../../../avr/lib/avr5/libc.a(dtoa_prf.o)
 .bss           0x0000000000000000        0x0 /usr/lib/gcc/avr/4.8.1/../../../avr/lib/avr5/libc.a(dtoa_prf.o)
 .text.avr-libc
                0x0000000000000000      0x2fc /usr/lib/gcc/avr/4.8.1/../../../avr/lib/avr5/libc.a(dtoa_prf.o)
 .text          0x0000000000000000        0x0 /usr/lib/gcc/avr/4.8.1/../../../avr/lib/avr5/libc.a(strtod.o)
 .bss           0x0000000000000000        0x0 /usr/lib/gcc/avr/4.8.1/../../../avr/lib/avr5/libc.a(strtod.o)
 .text.avr-libc
                0x0000000000000000      0x2c6 /usr/lib/gcc/avr/4.8.1/../../../avr/lib/avr5/libc.a(strtod.o)
 .progmem.data  0x0000000000000000       0x3b /usr/lib/gcc/avr/4.8.1/../../../avr/lib/avr5/libc.a(strtod.o)
 .text          0x0000000000000000        0x0 /usr/lib/gcc/avr/4.8.1/../../../avr/lib/avr5/libc.a(ftoa_engine.o)
 .bss           0x0000000000000000        0x0 /usr/lib/gcc/avr/4.8.1/../../../avr/lib/avr5/libc.a(ftoa_engine.o)
 .text.avr-libc
                0x0000000000000000      0x1b0 /usr/lib/gcc/avr/4.8.1/../../../avr/lib/avr5/libc.a(ftoa_engine.o)
 .progmem.data  0x0000000000000000       0xfa /usr/lib/gcc/avr/4.8.1/../../../avr/lib/avr5/libc.a(ftoa_engine.o)
 .text          0x0000000000000000        0x0 /usr/lib/gcc/avr/4.8.1/../../../avr/lib/avr5/libc.a(cty_isfalse.o)
 .bss           0x0000000000000000        0x0 /usr/lib/gcc/avr/4.8.1/../../../avr/lib/avr5/libc.a(cty_isfalse.o)
 .text.avr-libc
                0x0000000000000000        0x6 /usr/lib/gcc/avr/4.8.1/../../../avr/lib/avr5/libc.a(cty_isfalse.o)
 .text          0x0000000000000000        0x0 /usr/lib/gcc/avr/4.8.1/../../../avr/lib/avr5/libc.a(strncasecmp_P.o)
 .bss           0x0000000000000000        0x0 /usr/lib/gcc/avr/4.8.1/../../../avr/lib/avr5/libc.a(strncasecmp_P.o)
 .text.avr-libc
                0x0000000000000000       0x30 /usr/lib/gcc/avr/4.8.1/../../../avr/lib/avr5/libc.a(strncasecmp_P.o)
 .text          0x0000000000000000        0x0 /usr/lib/gcc/avr/4.8.1/../../../avr/lib/avr5/libc.a(strrev.o)
 .bss           0x0000000000000000        0x0 /usr/lib/gcc/avr/4.8.1/../../../avr/lib/avr5/libc.a(strrev.o)
 .text.avr-libc
                0x0000000000000000       0x20 /usr/lib/gcc/avr/4.8.1/../../../avr/lib/avr5/libc.a(strrev.o)
 .text          0x0000000000000000        0x0 /usr/lib/gcc/avr/4.8.1/../../../avr/lib/avr5/libc.a(errno.o)
 .bss           0x0000000000000000        0x0 /usr/lib/gcc/avr/4.8.1/../../../avr/lib/avr5/libc.a(errno.o)
 COMMON         0x0000000000000000        0x2 /usr/lib/gcc/avr/4.8.1/../../../avr/lib/avr5/libc.a(errno.o)
 .text          0x0000000000000000        0x0 /usr/lib/gcc/avr/4.8.1/avr5/libgcc.a(_prologue.o)
 .bss           0x0000000000000000        0x0 /usr/lib/gcc/avr/4.8.1/avr5/libgcc.a(_prologue.o)
 .text.libgcc.mul
                0x0000000000000000        0x0 /usr/lib/gcc/avr/4.8.1/avr5/libgcc.a(_prologue.o)
 .text.libgcc.div
                0x0000000000000000        0x0 /usr/lib/gcc/avr/4.8.1/avr5/libgcc.a(_prologue.o)
 .text.libgcc   0x0000000000000000        0x0 /usr/lib/gcc/avr/4.8.1/avr5/libgcc.a(_prologue.o)
 .text.libgcc.prologue
                0x0000000000000000       0x38 /usr/lib/gcc/avr/4.8.1/avr5/libgcc.a(_prologue.o)
 .text.libgcc.builtins
                0x0000000000000000        0x0 /usr/lib/gcc/avr/4.8.1/avr5/libgcc.a(_prologue.o)
 .text.libgcc.fmul
                0x0000000000000000        0x0 /usr/lib/gcc/avr/4.8.1/avr5/libgcc.a(_prologue.o)
 .text.libgcc.fixed
                0x0000000000000000        0x0 /usr/lib/gcc/avr/4.8.1/avr5/libgcc.a(_prologue.o)
 .text          0x0000000000000000        0x0 /usr/lib/gcc/avr/4.8.1/avr5/libgcc.a(_epilogue.o)
 .bss           0x0000000000000000        0x0 /usr/lib/gcc/avr/4.8.1/avr5/libgcc.a(_epilogue.o)
 .text.libgcc.mul
                0x0000000000000000        0x0 /usr/lib/gcc/avr/4.8.1/avr5/libgcc.a(_epilogue.o)
 .text.libgcc.div
                0x0000000000000000        0x0 /usr/lib/gcc/avr/4.8.1/avr5/libgcc.a(_epilogue.o)
 .text.libgcc   0x0000000000000000        0x0 /usr/lib/gcc/avr/4.8.1/avr5/libgcc.a(_epilogue.o)
 .text.libgcc.prologue
                0x0000000000000000       0x36 /usr/lib/gcc/avr/4.8.1/avr5/libgcc.a(_epilogue.o)
 .text.libgcc.builtins
                0x0000000000000000        0x0 /usr/lib/gcc/avr/4.8.1/avr5/libgcc.a(_epilogue.o)
 .text.libgcc.fmul
                0x0000000000000000        0x0 /usr/lib/gcc/avr/4.8.1/avr5/libgcc.a(_epilogue.o)
 .text.libgcc.fixed
                0x0000000000000000        0x0 /usr/lib/gcc/avr/4.8.1/avr5/libgcc.a(_epilogue.o)

Memory Configuration

Name             Origin             Length             Attributes
text             0x0000000000000000 0x0000000000020000 xr
data             0x0000000000800060 0x000000000000ffa0 rw !x
eeprom           0x0000000000810000 0x0000000000010000 rw !x
fuse             0x0000000000820000 0x0000000000000400 rw !x
lock             0x0000000000830000 0x0000000000000400 rw !x
signature        0x0000000000840000 0x0000000000000400 rw !x
user_signatures  0x0000000000850000 0x0000000000000400 rw !x
*default*        0x0000000000000000 0xffffffffffffffff

Linker script and memory map

Address of section .data set to 0x800100
LOAD /usr/lib/gcc/avr/4.8.1/../../../avr/lib/avr5/crtm328p.o
LOAD ./Settings/Settings.o
LOAD ./main.o
LOAD /work/opensource/personal/microcontroller/arduino/ArduinoLibraries/ArduinoAccelerometerDriver/Release/libArduinoAccelerometerSensor.a
LOAD /work/opensource/personal/microcontroller/arduino/ArduinoLibraries/ArduinoMessagingProtocol/Release/libArduinoMessagingProtocol.a
LOAD /work/opensource/personal/microcontroller/arduino/ArduinoLibraries/ArduinoIO/Release/libArduinoIO.a
LOAD /work/opensource/personal/microcontroller/arduino/ArduinoLibraries/ArduinoMemoryDriver/Release/libArduinoMemoryDriver.a
LOAD /work/opensource/personal/microcontroller/arduino/ArduinoLibraries/ArduinoDevice/Release/libArduinoDevice.a
LOAD /work/opensource/personal/microcontroller/arduino/ArduinoLibraries/ArduinoCore/Release/libArduinoCore.a
LOAD /usr/lib/gcc/avr/4.8.1/avr5/libgcc.a
LOAD /usr/lib/gcc/avr/4.8.1/../../../avr/lib/avr5/libm.a
START GROUP
LOAD /usr/lib/gcc/avr/4.8.1/avr5/libgcc.a
LOAD /usr/lib/gcc/avr/4.8.1/../../../avr/lib/avr5/libm.a
LOAD /usr/lib/gcc/avr/4.8.1/../../../avr/lib/avr5/libc.a
END GROUP

.hash
 *(.hash)

.dynsym
 *(.dynsym)

.dynstr
 *(.dynstr)

.gnu.version
 *(.gnu.version)

.gnu.version_d
 *(.gnu.version_d)

.gnu.version_r
 *(.gnu.version_r)

.rel.init
 *(.rel.init)

.rela.init
 *(.rela.init)

.rel.text
 *(.rel.text)
 *(.rel.text.*)
 *(.rel.gnu.linkonce.t*)

.rela.text
 *(.rela.text)
 *(.rela.text.*)
 *(.rela.gnu.linkonce.t*)

.rel.fini
 *(.rel.fini)

.rela.fini
 *(.rela.fini)

.rel.rodata
 *(.rel.rodata)
 *(.rel.rodata.*)
 *(.rel.gnu.linkonce.r*)

.rela.rodata
 *(.rela.rodata)
 *(.rela.rodata.*)
 *(.rela.gnu.linkonce.r*)

.rel.data
 *(.rel.data)
 *(.rel.data.*)
 *(.rel.gnu.linkonce.d*)

.rela.data
 *(.rela.data)
 *(.rela.data.*)
 *(.rela.gnu.linkonce.d*)

.rel.ctors
 *(.rel.ctors)

.rela.ctors
 *(.rela.ctors)

.rel.dtors
 *(.rel.dtors)

.rela.dtors
 *(.rela.dtors)

.rel.got
 *(.rel.got)

.rela.got
 *(.rela.got)

.rel.bss
 *(.rel.bss)

.rela.bss
 *(.rela.bss)

.rel.plt
 *(.rel.plt)

.rela.plt
 *(.rela.plt)

.text           0x0000000000000000     0x386c
 *(.vectors)
 .vectors       0x0000000000000000       0x68 /usr/lib/gcc/avr/4.8.1/../../../avr/lib/avr5/crtm328p.o
                0x0000000000000000                __vectors
                0x0000000000000000                __vector_default
 *(.vectors)
 *(.progmem.gcc*)
 .progmem.gcc_sw_table._ZN13MessageParser6decodeEh
                0x0000000000000068        0xe /work/opensource/personal/microcontroller/arduino/ArduinoLibraries/ArduinoMessagingProtocol/Release/libArduinoMessagingProtocol.a(MessageParser.o)
                0x0000000000000076                . = ALIGN (0x2)
                0x0000000000000076                __trampolines_start = .
 *(.trampolines)
 .trampolines   0x0000000000000076        0x0 linker stubs
 *(.trampolines*)
                0x0000000000000076                __trampolines_end = .
 *(.progmem*)
 .progmem.data.digital_pin_to_timer_PGM
                0x0000000000000076       0x14 /work/opensource/personal/microcontroller/arduino/ArduinoLibraries/ArduinoCore/Release/libArduinoCore.a(wiring_digital.o)
                0x0000000000000076                digital_pin_to_timer_PGM
 .progmem.data.digital_pin_to_bit_mask_PGM
                0x000000000000008a       0x14 /work/opensource/personal/microcontroller/arduino/ArduinoLibraries/ArduinoCore/Release/libArduinoCore.a(wiring_digital.o)
                0x000000000000008a                digital_pin_to_bit_mask_PGM
 .progmem.data.digital_pin_to_port_PGM
                0x000000000000009e       0x14 /work/opensource/personal/microcontroller/arduino/ArduinoLibraries/ArduinoCore/Release/libArduinoCore.a(wiring_digital.o)
                0x000000000000009e                digital_pin_to_port_PGM
 .progmem.data.port_to_input_PGM
                0x00000000000000b2        0xa /work/opensource/personal/microcontroller/arduino/ArduinoLibraries/ArduinoCore/Release/libArduinoCore.a(wiring_digital.o)
                0x00000000000000b2                port_to_input_PGM
 .progmem.data.port_to_output_PGM
                0x00000000000000bc        0xa /work/opensource/personal/microcontroller/arduino/ArduinoLibraries/ArduinoCore/Release/libArduinoCore.a(wiring_digital.o)
                0x00000000000000bc                port_to_output_PGM
 .progmem.data.port_to_mode_PGM
                0x00000000000000c6        0xa /work/opensource/personal/microcontroller/arduino/ArduinoLibraries/ArduinoCore/Release/libArduinoCore.a(wiring_digital.o)
                0x00000000000000c6                port_to_mode_PGM
                0x00000000000000d0                . = ALIGN (0x2)
 *(.jumptables)
 *(.jumptables*)
 *(.lowtext)
 *(.lowtext*)
                0x00000000000000d0                __ctors_start = .
 *(.ctors)
 .ctors         0x00000000000000d0        0x2 ./main.o
 .ctors         0x00000000000000d2        0x2 /work/opensource/personal/microcontroller/arduino/ArduinoLibraries/ArduinoCore/Release/libArduinoCore.a(Wire.o)
 .ctors         0x00000000000000d4        0x2 /work/opensource/personal/microcontroller/arduino/ArduinoLibraries/ArduinoCore/Release/libArduinoCore.a(HardwareSerial0.o)
                0x00000000000000d6                __ctors_end = .
                0x00000000000000d6                __dtors_start = .
 *(.dtors)
 .dtors         0x00000000000000d6        0x2 ./main.o
                0x00000000000000d8                __dtors_end = .
 SORT(*)(.ctors)
 SORT(*)(.dtors)
 *(.init0)
 .init0         0x00000000000000d8        0x0 /usr/lib/gcc/avr/4.8.1/../../../avr/lib/avr5/crtm328p.o
                0x00000000000000d8                __init
 *(.init0)
 *(.init1)
 *(.init1)
 *(.init2)
 .init2         0x00000000000000d8        0xc /usr/lib/gcc/avr/4.8.1/../../../avr/lib/avr5/crtm328p.o
 *(.init2)
 *(.init3)
 *(.init3)
 *(.init4)
 .init4         0x00000000000000e4       0x16 /usr/lib/gcc/avr/4.8.1/avr5/libgcc.a(_copy_data.o)
                0x00000000000000e4                __do_copy_data
 .init4         0x00000000000000fa       0x10 /usr/lib/gcc/avr/4.8.1/avr5/libgcc.a(_clear_bss.o)
                0x00000000000000fa                __do_clear_bss
 *(.init4)
 *(.init5)
 *(.init5)
 *(.init6)
 .init6         0x000000000000010a       0x16 /usr/lib/gcc/avr/4.8.1/avr5/libgcc.a(_ctors.o)
                0x000000000000010a                __do_global_ctors
 *(.init6)
 *(.init7)
 *(.init7)
 *(.init8)
 *(.init8)
 *(.init9)
 .init9         0x0000000000000120        0x6 /usr/lib/gcc/avr/4.8.1/../../../avr/lib/avr5/crtm328p.o
 *(.init9)
 *(.text)
 .text          0x0000000000000126        0x2 /usr/lib/gcc/avr/4.8.1/../../../avr/lib/avr5/crtm328p.o
                0x0000000000000126                __vector_22
                0x0000000000000126                __vector_12
                0x0000000000000126                __bad_interrupt
                0x0000000000000126                __vector_6
                0x0000000000000126                __vector_23
                0x0000000000000126                __vector_25
                0x0000000000000126                __vector_11
                0x0000000000000126                __vector_13
                0x0000000000000126                __vector_17
                0x0000000000000126                __vector_7
                0x0000000000000126                __vector_9
                0x0000000000000126                __vector_21
                0x0000000000000126                __vector_15
                0x0000000000000126                __vector_8
                0x0000000000000126                __vector_14
                0x0000000000000126                __vector_10
                0x0000000000000126                __vector_20
                0x0000000000000128                . = ALIGN (0x2)
 *(.text.*)
 .text._ZN8SettingsC2EP20SeekableOutputStreamP19SeekableInputStream
                0x0000000000000128       0x18 ./Settings/Settings.o
                0x0000000000000128                _ZN8SettingsC2EP20SeekableOutputStreamP19SeekableInputStream
                0x0000000000000128                _ZN8SettingsC1EP20SeekableOutputStreamP19SeekableInputStream
 .text._ZN8Settings4loadEv
                0x0000000000000140      0x14c ./Settings/Settings.o
                0x0000000000000140                _ZN8Settings4loadEv
 .text._ZN8Settings4saveEv
                0x000000000000028c      0x14c ./Settings/Settings.o
                0x000000000000028c                _ZN8Settings4saveEv
 .text._ZN8Settings6updateEhh
                0x00000000000003d8       0x32 ./Settings/Settings.o
                0x00000000000003d8                _ZN8Settings6updateEhh
 .text._Z3isrv  0x000000000000040a        0x8 ./main.o
                0x000000000000040a                _Z3isrv
 .text._ZN21External24cl256EepromD2Ev
                0x0000000000000412        0xc ./main.o
                0x0000000000000412                _ZN21External24cl256EepromD1Ev
                0x0000000000000412                _ZN21External24cl256EepromD2Ev
 .text._ZN21External24cl256EepromD0Ev
                0x000000000000041e        0xe ./main.o
                0x000000000000041e                _ZN21External24cl256EepromD0Ev
 .text._Z18setupAccelerometerv
                0x000000000000042c       0x56 ./main.o
                0x000000000000042c                _Z18setupAccelerometerv
 .text.setup    0x0000000000000482       0x48 ./main.o
                0x0000000000000482                setup
 .text._Z15processSettingshh
                0x00000000000004ca        0xc ./main.o
                0x00000000000004ca                _Z15processSettingshh
 .text._Z22processReceivedMessagev
                0x00000000000004d6       0x7c ./main.o
                0x00000000000004d6                _Z22processReceivedMessagev
 .text.loop     0x0000000000000552       0x42 ./main.o
                0x0000000000000552                loop
 .text.startup.main
                0x0000000000000594       0x16 ./main.o
                0x0000000000000594                main
 .text.startup._GLOBAL__sub_I_triggered
                0x00000000000005aa       0xd4 ./main.o
 .text.exit._GLOBAL__sub_D_triggered
                0x000000000000067e       0x34 ./main.o
 .text._ZN20AccelerometerMMA8451C2Eb
                0x00000000000006b2       0x34 /work/opensource/personal/microcontroller/arduino/ArduinoLibraries/ArduinoAccelerometerDriver/Release/libArduinoAccelerometerSensor.a(AccelerometerMMA8451.o)
                0x00000000000006b2                _ZN20AccelerometerMMA8451C2Eb
                0x00000000000006b2                _ZN20AccelerometerMMA8451C1Eb
 .text._ZN20AccelerometerMMA845116deviceActivationENS_16DeviceActivationE
                0x00000000000006e6        0xc /work/opensource/personal/microcontroller/arduino/ArduinoLibraries/ArduinoAccelerometerDriver/Release/libArduinoAccelerometerSensor.a(AccelerometerMMA8451.o)
                0x00000000000006e6                _ZN20AccelerometerMMA845116deviceActivationENS_16DeviceActivationE
 .text._ZN20AccelerometerMMA845115setDynamicRangeENS_12DynamicRangeE
                0x00000000000006f2       0x28 /work/opensource/personal/microcontroller/arduino/ArduinoLibraries/ArduinoAccelerometerDriver/Release/libArduinoAccelerometerSensor.a(AccelerometerMMA8451.o)
                0x00000000000006f2                _ZN20AccelerometerMMA845115setDynamicRangeENS_12DynamicRangeE
 .text._ZN20AccelerometerMMA845117setOutputDataRateENS_14OutputDataRateE
                0x000000000000071a       0x12 /work/opensource/personal/microcontroller/arduino/ArduinoLibraries/ArduinoAccelerometerDriver/Release/libArduinoAccelerometerSensor.a(AccelerometerMMA8451.o)
                0x000000000000071a                _ZN20AccelerometerMMA845117setOutputDataRateENS_14OutputDataRateE
 .text._ZN20AccelerometerMMA845123setOrientationDetectionEbb
                0x000000000000072c       0x14 /work/opensource/personal/microcontroller/arduino/ArduinoLibraries/ArduinoAccelerometerDriver/Release/libArduinoAccelerometerSensor.a(AccelerometerMMA8451.o)
                0x000000000000072c                _ZN20AccelerometerMMA845123setOrientationDetectionEbb
 .text._ZN20AccelerometerMMA845129setOrientationDebounceCounterEh
                0x0000000000000740        0xa /work/opensource/personal/microcontroller/arduino/ArduinoLibraries/ArduinoAccelerometerDriver/Release/libArduinoAccelerometerSensor.a(AccelerometerMMA8451.o)
                0x0000000000000740                _ZN20AccelerometerMMA845129setOrientationDebounceCounterEh
 .text._ZN20AccelerometerMMA845135setOrientationBackFrontCompensationEhh
                0x000000000000074a       0x16 /work/opensource/personal/microcontroller/arduino/ArduinoLibraries/ArduinoAccelerometerDriver/Release/libArduinoAccelerometerSensor.a(AccelerometerMMA8451.o)
                0x000000000000074a                _ZN20AccelerometerMMA845135setOrientationBackFrontCompensationEhh
 .text._ZN20AccelerometerMMA845136setOrientationThresholdAndHysteresisEhh
                0x0000000000000760       0x14 /work/opensource/personal/microcontroller/arduino/ArduinoLibraries/ArduinoAccelerometerDriver/Release/libArduinoAccelerometerSensor.a(AccelerometerMMA8451.o)
                0x0000000000000760                _ZN20AccelerometerMMA845136setOrientationThresholdAndHysteresisEhh
 .text._ZN20AccelerometerMMA845115enableInterruptENS_9InterruptE
                0x0000000000000774        0xc /work/opensource/personal/microcontroller/arduino/ArduinoLibraries/ArduinoAccelerometerDriver/Release/libArduinoAccelerometerSensor.a(AccelerometerMMA8451.o)
                0x0000000000000774                _ZN20AccelerometerMMA845115enableInterruptENS_9InterruptE
 .text._ZN20AccelerometerMMA845120routeInterruptToInt1ENS_9InterruptE
                0x0000000000000780        0xc /work/opensource/personal/microcontroller/arduino/ArduinoLibraries/ArduinoAccelerometerDriver/Release/libArduinoAccelerometerSensor.a(AccelerometerMMA8451.o)
                0x0000000000000780                _ZN20AccelerometerMMA845120routeInterruptToInt1ENS_9InterruptE
 .text._ZN20AccelerometerMMA845110convertToGEPhb
                0x000000000000078c       0xa0 /work/opensource/personal/microcontroller/arduino/ArduinoLibraries/ArduinoAccelerometerDriver/Release/libArduinoAccelerometerSensor.a(AccelerometerMMA8451.o)
                0x000000000000078c                _ZN20AccelerometerMMA845110convertToGEPhb
 .text._ZN20AccelerometerMMA845115readAxisGravityEh
                0x000000000000082c       0x7a /work/opensource/personal/microcontroller/arduino/ArduinoLibraries/ArduinoAccelerometerDriver/Release/libArduinoAccelerometerSensor.a(AccelerometerMMA8451.o)
                0x000000000000082c                _ZN20AccelerometerMMA845115readAxisGravityEh
 .text._ZN20AccelerometerMMA84516readXgEv
                0x00000000000008a6        0x4 /work/opensource/personal/microcontroller/arduino/ArduinoLibraries/ArduinoAccelerometerDriver/Release/libArduinoAccelerometerSensor.a(AccelerometerMMA8451.o)
                0x00000000000008a6                _ZN20AccelerometerMMA84516readXgEv
 .text._ZN20AccelerometerMMA84516readYgEv
                0x00000000000008aa        0x4 /work/opensource/personal/microcontroller/arduino/ArduinoLibraries/ArduinoAccelerometerDriver/Release/libArduinoAccelerometerSensor.a(AccelerometerMMA8451.o)
                0x00000000000008aa                _ZN20AccelerometerMMA84516readYgEv
 .text._ZN20AccelerometerMMA84516readZgEv
                0x00000000000008ae        0x4 /work/opensource/personal/microcontroller/arduino/ArduinoLibraries/ArduinoAccelerometerDriver/Release/libArduinoAccelerometerSensor.a(AccelerometerMMA8451.o)
                0x00000000000008ae                _ZN20AccelerometerMMA84516readZgEv
 .text._ZN12RemoteDeviceD2Ev
                0x00000000000008b2        0xc /work/opensource/personal/microcontroller/arduino/ArduinoLibraries/ArduinoMessagingProtocol/Release/libArduinoMessagingProtocol.a(RemoteDevice.o)
                0x00000000000008b2                _ZN12RemoteDeviceD2Ev
                0x00000000000008b2                _ZN12RemoteDeviceD1Ev
 .text._ZN12RemoteDeviceD0Ev
                0x00000000000008be        0xe /work/opensource/personal/microcontroller/arduino/ArduinoLibraries/ArduinoMessagingProtocol/Release/libArduinoMessagingProtocol.a(RemoteDevice.o)
                0x00000000000008be                _ZN12RemoteDeviceD0Ev
 .text._ZN12RemoteDeviceC2EP13MessageParserP7MessageP12OutputStreamP11InputStream
                0x00000000000008cc       0x24 /work/opensource/personal/microcontroller/arduino/ArduinoLibraries/ArduinoMessagingProtocol/Release/libArduinoMessagingProtocol.a(RemoteDevice.o)
                0x00000000000008cc                _ZN12RemoteDeviceC1EP13MessageParserP7MessageP12OutputStreamP11InputStream
                0x00000000000008cc                _ZN12RemoteDeviceC2EP13MessageParserP7MessageP12OutputStreamP11InputStream
 .text._ZN12RemoteDevice15transmitMessageEP7Message
                0x00000000000008f0       0xce /work/opensource/personal/microcontroller/arduino/ArduinoLibraries/ArduinoMessagingProtocol/Release/libArduinoMessagingProtocol.a(RemoteDevice.o)
                0x00000000000008f0                _ZN12RemoteDevice15transmitMessageEP7Message
 .text._ZN12RemoteDevice14receiveMessageEP7Message
                0x00000000000009be       0x64 /work/opensource/personal/microcontroller/arduino/ArduinoLibraries/ArduinoMessagingProtocol/Release/libArduinoMessagingProtocol.a(RemoteDevice.o)
                0x00000000000009be                _ZN12RemoteDevice14receiveMessageEP7Message
 .text._ZN12RemoteDevice18waitForMessageTypeEN7Message4TypeEm
                0x0000000000000a22       0xc2 /work/opensource/personal/microcontroller/arduino/ArduinoLibraries/ArduinoMessagingProtocol/Release/libArduinoMessagingProtocol.a(RemoteDevice.o)
                0x0000000000000a22                _ZN12RemoteDevice18waitForMessageTypeEN7Message4TypeEm
 .text._ZN12RemoteDevice7connectEm
                0x0000000000000ae4       0x58 /work/opensource/personal/microcontroller/arduino/ArduinoLibraries/ArduinoMessagingProtocol/Release/libArduinoMessagingProtocol.a(RemoteDevice.o)
                0x0000000000000ae4                _ZN12RemoteDevice7connectEm
 .text._ZN8Notifier17notifyTransmitingEv
                0x0000000000000b3c        0x8 /work/opensource/personal/microcontroller/arduino/ArduinoLibraries/ArduinoMessagingProtocol/Release/libArduinoMessagingProtocol.a(Notifier.o)
                0x0000000000000b3c                _ZN8Notifier17notifyTransmitingEv
 .text._ZN8Notifier19unnotifyTransmitingEv
                0x0000000000000b44        0x8 /work/opensource/personal/microcontroller/arduino/ArduinoLibraries/ArduinoMessagingProtocol/Release/libArduinoMessagingProtocol.a(Notifier.o)
                0x0000000000000b44                _ZN8Notifier19unnotifyTransmitingEv
 .text._ZN8Notifier13notifyWaitingEv
                0x0000000000000b4c        0x8 /work/opensource/personal/microcontroller/arduino/ArduinoLibraries/ArduinoMessagingProtocol/Release/libArduinoMessagingProtocol.a(Notifier.o)
                0x0000000000000b4c                _ZN8Notifier13notifyWaitingEv
 .text._ZN8Notifier15unnotifyWaitingEv
                0x0000000000000b54        0x8 /work/opensource/personal/microcontroller/arduino/ArduinoLibraries/ArduinoMessagingProtocol/Release/libArduinoMessagingProtocol.a(Notifier.o)
                0x0000000000000b54                _ZN8Notifier15unnotifyWaitingEv
 .text._ZN13MessageParserC2EPht
                0x0000000000000b5c       0x12 /work/opensource/personal/microcontroller/arduino/ArduinoLibraries/ArduinoMessagingProtocol/Release/libArduinoMessagingProtocol.a(MessageParser.o)
                0x0000000000000b5c                _ZN13MessageParserC1EPht
                0x0000000000000b5c                _ZN13MessageParserC2EPht
 .text._ZN13MessageParser6decodeEh
                0x0000000000000b6e       0x98 /work/opensource/personal/microcontroller/arduino/ArduinoLibraries/ArduinoMessagingProtocol/Release/libArduinoMessagingProtocol.a(MessageParser.o)
                0x0000000000000b6e                _ZN13MessageParser6decodeEh
 .text._ZN13MessageParser17getDecodedMessageEP7Message
                0x0000000000000c06       0x58 /work/opensource/personal/microcontroller/arduino/ArduinoLibraries/ArduinoMessagingProtocol/Release/libArduinoMessagingProtocol.a(MessageParser.o)
                0x0000000000000c06                _ZN13MessageParser17getDecodedMessageEP7Message
 .text._ZN7MessageC2EPh
                0x0000000000000c5e        0xe /work/opensource/personal/microcontroller/arduino/ArduinoLibraries/ArduinoMessagingProtocol/Release/libArduinoMessagingProtocol.a(Message.o)
                0x0000000000000c5e                _ZN7MessageC1EPh
                0x0000000000000c5e                _ZN7MessageC2EPh
 .text._ZN7Message5resetEv
                0x0000000000000c6c        0xa /work/opensource/personal/microcontroller/arduino/ArduinoLibraries/ArduinoMessagingProtocol/Release/libArduinoMessagingProtocol.a(Message.o)
                0x0000000000000c6c                _ZN7Message5resetEv
 .text._ZN7Message5getIdEv
                0x0000000000000c76        0x6 /work/opensource/personal/microcontroller/arduino/ArduinoLibraries/ArduinoMessagingProtocol/Release/libArduinoMessagingProtocol.a(Message.o)
                0x0000000000000c76                _ZN7Message5getIdEv
 .text._ZN7Message5setIdEh
                0x0000000000000c7c        0x6 /work/opensource/personal/microcontroller/arduino/ArduinoLibraries/ArduinoMessagingProtocol/Release/libArduinoMessagingProtocol.a(Message.o)
                0x0000000000000c7c                _ZN7Message5setIdEh
 .text._ZN7Message14generateNextIdEv
                0x0000000000000c82       0x10 /work/opensource/personal/microcontroller/arduino/ArduinoLibraries/ArduinoMessagingProtocol/Release/libArduinoMessagingProtocol.a(Message.o)
                0x0000000000000c82                _ZN7Message14generateNextIdEv
 .text._ZN7Message7getTypeEv
                0x0000000000000c92        0x6 /work/opensource/personal/microcontroller/arduino/ArduinoLibraries/ArduinoMessagingProtocol/Release/libArduinoMessagingProtocol.a(Message.o)
                0x0000000000000c92                _ZN7Message7getTypeEv
 .text._ZN7Message7setTypeEh
                0x0000000000000c98        0x6 /work/opensource/personal/microcontroller/arduino/ArduinoLibraries/ArduinoMessagingProtocol/Release/libArduinoMessagingProtocol.a(Message.o)
                0x0000000000000c98                _ZN7Message7setTypeEh
 .text._ZN7Message14getPayloadSizeEv
                0x0000000000000c9e        0x6 /work/opensource/personal/microcontroller/arduino/ArduinoLibraries/ArduinoMessagingProtocol/Release/libArduinoMessagingProtocol.a(Message.o)
                0x0000000000000c9e                _ZN7Message14getPayloadSizeEv
 .text._ZN7Message14setPayloadSizeEh
                0x0000000000000ca4        0x6 /work/opensource/personal/microcontroller/arduino/ArduinoLibraries/ArduinoMessagingProtocol/Release/libArduinoMessagingProtocol.a(Message.o)
                0x0000000000000ca4                _ZN7Message14setPayloadSizeEh
 .text._ZN7Message10getPayloadEv
                0x0000000000000caa        0x8 /work/opensource/personal/microcontroller/arduino/ArduinoLibraries/ArduinoMessagingProtocol/Release/libArduinoMessagingProtocol.a(Message.o)
                0x0000000000000caa                _ZN7Message10getPayloadEv
 .text._ZN26SoftwareSerialOutputStream5writeEh
                0x0000000000000cb2       0x18 /work/opensource/personal/microcontroller/arduino/ArduinoLibraries/ArduinoIO/Release/libArduinoIO.a(SoftwareSerialOutputStream.o)
                0x0000000000000cb2                _ZN26SoftwareSerialOutputStream5writeEh
 .text._ZN26SoftwareSerialOutputStream5writeEPhii
                0x0000000000000cca       0x1e /work/opensource/personal/microcontroller/arduino/ArduinoLibraries/ArduinoIO/Release/libArduinoIO.a(SoftwareSerialOutputStream.o)
                0x0000000000000cca                _ZN26SoftwareSerialOutputStream5writeEPhii
 .text._ZN26SoftwareSerialOutputStreamC2EP14SoftwareSerial
                0x0000000000000ce8       0x10 /work/opensource/personal/microcontroller/arduino/ArduinoLibraries/ArduinoIO/Release/libArduinoIO.a(SoftwareSerialOutputStream.o)
                0x0000000000000ce8                _ZN26SoftwareSerialOutputStreamC1EP14SoftwareSerial
                0x0000000000000ce8                _ZN26SoftwareSerialOutputStreamC2EP14SoftwareSerial
 .text._ZN25SoftwareSerialInputStream9availableEv
                0x0000000000000cf8       0x18 /work/opensource/personal/microcontroller/arduino/ArduinoLibraries/ArduinoIO/Release/libArduinoIO.a(SoftwareSerialInputStream.o)
                0x0000000000000cf8                _ZN25SoftwareSerialInputStream9availableEv
 .text._ZN25SoftwareSerialInputStream4readEv
                0x0000000000000d10       0x18 /work/opensource/personal/microcontroller/arduino/ArduinoLibraries/ArduinoIO/Release/libArduinoIO.a(SoftwareSerialInputStream.o)
                0x0000000000000d10                _ZN25SoftwareSerialInputStream4readEv
 .text._ZN25SoftwareSerialInputStream4readEPhii
                0x0000000000000d28       0x10 /work/opensource/personal/microcontroller/arduino/ArduinoLibraries/ArduinoIO/Release/libArduinoIO.a(SoftwareSerialInputStream.o)
                0x0000000000000d28                _ZN25SoftwareSerialInputStream4readEPhii
 .text._ZN25SoftwareSerialInputStreamC2EP14SoftwareSerial
                0x0000000000000d38       0x10 /work/opensource/personal/microcontroller/arduino/ArduinoLibraries/ArduinoIO/Release/libArduinoIO.a(SoftwareSerialInputStream.o)
                0x0000000000000d38                _ZN25SoftwareSerialInputStreamC2EP14SoftwareSerial
                0x0000000000000d38                _ZN25SoftwareSerialInputStreamC1EP14SoftwareSerial
 .text._ZN12OutputStream5writeEPhi
                0x0000000000000d48       0x14 /work/opensource/personal/microcontroller/arduino/ArduinoLibraries/ArduinoIO/Release/libArduinoIO.a(OutputStream.o)
                0x0000000000000d48                _ZN12OutputStream5writeEPhi
 .text._ZN12OutputStream5flushEv
                0x0000000000000d5c        0x2 /work/opensource/personal/microcontroller/arduino/ArduinoLibraries/ArduinoIO/Release/libArduinoIO.a(OutputStream.o)
                0x0000000000000d5c                _ZN12OutputStream5flushEv
 .text._ZN12OutputStream5closeEv
                0x0000000000000d5e        0x2 /work/opensource/personal/microcontroller/arduino/ArduinoLibraries/ArduinoIO/Release/libArduinoIO.a(OutputStream.o)
                0x0000000000000d5e                _ZN12OutputStream5closeEv
 .text._ZN12OutputStream4markEv
                0x0000000000000d60        0x2 /work/opensource/personal/microcontroller/arduino/ArduinoLibraries/ArduinoIO/Release/libArduinoIO.a(OutputStream.o)
                0x0000000000000d60                _ZN12OutputStream4markEv
 .text._ZN12OutputStream13markSupportedEv
                0x0000000000000d62        0x4 /work/opensource/personal/microcontroller/arduino/ArduinoLibraries/ArduinoIO/Release/libArduinoIO.a(OutputStream.o)
                0x0000000000000d62                _ZN12OutputStream13markSupportedEv
 .text._ZN12OutputStream5resetEv
                0x0000000000000d66        0x2 /work/opensource/personal/microcontroller/arduino/ArduinoLibraries/ArduinoIO/Release/libArduinoIO.a(OutputStream.o)
                0x0000000000000d66                _ZN12OutputStream5resetEv
 .text._ZN12OutputStream5writeEPhii
                0x0000000000000d68       0x5a /work/opensource/personal/microcontroller/arduino/ArduinoLibraries/ArduinoIO/Release/libArduinoIO.a(OutputStream.o)
                0x0000000000000d68                _ZN12OutputStream5writeEPhii
 .text._ZN11InputStream9availableEv
                0x0000000000000dc2        0x6 /work/opensource/personal/microcontroller/arduino/ArduinoLibraries/ArduinoIO/Release/libArduinoIO.a(InputStream.o)
                0x0000000000000dc2                _ZN11InputStream9availableEv
 .text._ZN11InputStream5closeEv
                0x0000000000000dc8        0x2 /work/opensource/personal/microcontroller/arduino/ArduinoLibraries/ArduinoIO/Release/libArduinoIO.a(InputStream.o)
                0x0000000000000dc8                _ZN11InputStream5closeEv
 .text._ZN11InputStream4markEv
                0x0000000000000dca        0x2 /work/opensource/personal/microcontroller/arduino/ArduinoLibraries/ArduinoIO/Release/libArduinoIO.a(InputStream.o)
                0x0000000000000dca                _ZN11InputStream4markEv
 .text._ZN11InputStream13markSupportedEv
                0x0000000000000dcc        0x4 /work/opensource/personal/microcontroller/arduino/ArduinoLibraries/ArduinoIO/Release/libArduinoIO.a(InputStream.o)
                0x0000000000000dcc                _ZN11InputStream13markSupportedEv
 .text._ZN11InputStream4readEPhi
                0x0000000000000dd0       0x14 /work/opensource/personal/microcontroller/arduino/ArduinoLibraries/ArduinoIO/Release/libArduinoIO.a(InputStream.o)
                0x0000000000000dd0                _ZN11InputStream4readEPhi
 .text._ZN11InputStream4readEPhii
                0x0000000000000de4       0x88 /work/opensource/personal/microcontroller/arduino/ArduinoLibraries/ArduinoIO/Release/libArduinoIO.a(InputStream.o)
                0x0000000000000de4                _ZN11InputStream4readEPhii
 .text._ZN11InputStream5resetEv
                0x0000000000000e6c        0x2 /work/opensource/personal/microcontroller/arduino/ArduinoLibraries/ArduinoIO/Release/libArduinoIO.a(InputStream.o)
                0x0000000000000e6c                _ZN11InputStream5resetEv
 .text._ZN11InputStream4skipEj
                0x0000000000000e6e       0x52 /work/opensource/personal/microcontroller/arduino/ArduinoLibraries/ArduinoIO/Release/libArduinoIO.a(InputStream.o)
                0x0000000000000e6e                _ZN11InputStream4skipEj
 .text._ZN26ExternalEepromOutputStream5writeEh
                0x0000000000000ec0       0x36 /work/opensource/personal/microcontroller/arduino/ArduinoLibraries/ArduinoIO/Release/libArduinoIO.a(ExternalEepromOutputStream.o)
                0x0000000000000ec0                _ZN26ExternalEepromOutputStream5writeEh
 .text._ZN26ExternalEepromOutputStream5writeEPhii
                0x0000000000000ef6       0x40 /work/opensource/personal/microcontroller/arduino/ArduinoLibraries/ArduinoIO/Release/libArduinoIO.a(ExternalEepromOutputStream.o)
                0x0000000000000ef6                _ZN26ExternalEepromOutputStream5writeEPhii
 .text._ZN26ExternalEepromOutputStream4seekEj
                0x0000000000000f36       0x12 /work/opensource/personal/microcontroller/arduino/ArduinoLibraries/ArduinoIO/Release/libArduinoIO.a(ExternalEepromOutputStream.o)
                0x0000000000000f36                _ZN26ExternalEepromOutputStream4seekEj
 .text._ZN26ExternalEepromOutputStream4markEv
                0x0000000000000f48        0xc /work/opensource/personal/microcontroller/arduino/ArduinoLibraries/ArduinoIO/Release/libArduinoIO.a(ExternalEepromOutputStream.o)
                0x0000000000000f48                _ZN26ExternalEepromOutputStream4markEv
 .text._ZN26ExternalEepromOutputStream13markSupportedEv
                0x0000000000000f54        0x4 /work/opensource/personal/microcontroller/arduino/ArduinoLibraries/ArduinoIO/Release/libArduinoIO.a(ExternalEepromOutputStream.o)
                0x0000000000000f54                _ZN26ExternalEepromOutputStream13markSupportedEv
 .text._ZN26ExternalEepromOutputStream5resetEv
                0x0000000000000f58        0xc /work/opensource/personal/microcontroller/arduino/ArduinoLibraries/ArduinoIO/Release/libArduinoIO.a(ExternalEepromOutputStream.o)
                0x0000000000000f58                _ZN26ExternalEepromOutputStream5resetEv
 .text._ZN20SeekableOutputStreamC2Ev
                0x0000000000000f64       0x3e /work/opensource/personal/microcontroller/arduino/ArduinoLibraries/ArduinoIO/Release/libArduinoIO.a(ExternalEepromOutputStream.o)
                0x0000000000000f64                _ZN20SeekableOutputStreamC2Ev
 .text._ZN26ExternalEepromOutputStreamC1EP14ExternalEeprom
                0x0000000000000fa2       0x54 /work/opensource/personal/microcontroller/arduino/ArduinoLibraries/ArduinoIO/Release/libArduinoIO.a(ExternalEepromOutputStream.o)
                0x0000000000000fa2                _ZN26ExternalEepromOutputStreamC1EP14ExternalEeprom
 .text._ZTv0_n10_N26ExternalEepromOutputStream5writeEh
                0x0000000000000ff6       0x12 /work/opensource/personal/microcontroller/arduino/ArduinoLibraries/ArduinoIO/Release/libArduinoIO.a(ExternalEepromOutputStream.o)
                0x0000000000000ff6                _ZTv0_n10_N26ExternalEepromOutputStream5writeEh
 .text._ZTv0_n14_N26ExternalEepromOutputStream5writeEPhii
                0x0000000000001008       0x14 /work/opensource/personal/microcontroller/arduino/ArduinoLibraries/ArduinoIO/Release/libArduinoIO.a(ExternalEepromOutputStream.o)
                0x0000000000001008                _ZTv0_n14_N26ExternalEepromOutputStream5writeEPhii
 .text._ZTv0_n16_N26ExternalEepromOutputStream4markEv
                0x000000000000101c       0x12 /work/opensource/personal/microcontroller/arduino/ArduinoLibraries/ArduinoIO/Release/libArduinoIO.a(ExternalEepromOutputStream.o)
                0x000000000000101c                _ZTv0_n16_N26ExternalEepromOutputStream4markEv
 .text._ZTv0_n18_N26ExternalEepromOutputStream13markSupportedEv
                0x000000000000102e       0x12 /work/opensource/personal/microcontroller/arduino/ArduinoLibraries/ArduinoIO/Release/libArduinoIO.a(ExternalEepromOutputStream.o)
                0x000000000000102e                _ZTv0_n18_N26ExternalEepromOutputStream13markSupportedEv
 .text._ZTv0_n20_N26ExternalEepromOutputStream5resetEv
                0x0000000000001040       0x12 /work/opensource/personal/microcontroller/arduino/ArduinoLibraries/ArduinoIO/Release/libArduinoIO.a(ExternalEepromOutputStream.o)
                0x0000000000001040                _ZTv0_n20_N26ExternalEepromOutputStream5resetEv
 .text._ZN25ExternalEepromInputStream9availableEv
                0x0000000000001052       0x1c /work/opensource/personal/microcontroller/arduino/ArduinoLibraries/ArduinoIO/Release/libArduinoIO.a(ExternalEepromInputStream.o)
                0x0000000000001052                _ZN25ExternalEepromInputStream9availableEv
 .text._ZN25ExternalEepromInputStream4readEv
                0x000000000000106e       0x4e /work/opensource/personal/microcontroller/arduino/ArduinoLibraries/ArduinoIO/Release/libArduinoIO.a(ExternalEepromInputStream.o)
                0x000000000000106e                _ZN25ExternalEepromInputStream4readEv
 .text._ZN25ExternalEepromInputStream4readEPhii
                0x00000000000010bc       0x4e /work/opensource/personal/microcontroller/arduino/ArduinoLibraries/ArduinoIO/Release/libArduinoIO.a(ExternalEepromInputStream.o)
                0x00000000000010bc                _ZN25ExternalEepromInputStream4readEPhii
 .text._ZN25ExternalEepromInputStream4markEv
                0x000000000000110a        0xc /work/opensource/personal/microcontroller/arduino/ArduinoLibraries/ArduinoIO/Release/libArduinoIO.a(ExternalEepromInputStream.o)
                0x000000000000110a                _ZN25ExternalEepromInputStream4markEv
 .text._ZN25ExternalEepromInputStream13markSupportedEv
                0x0000000000001116        0x4 /work/opensource/personal/microcontroller/arduino/ArduinoLibraries/ArduinoIO/Release/libArduinoIO.a(ExternalEepromInputStream.o)
                0x0000000000001116                _ZN25ExternalEepromInputStream13markSupportedEv
 .text._ZN25ExternalEepromInputStream5resetEv
                0x000000000000111a        0xc /work/opensource/personal/microcontroller/arduino/ArduinoLibraries/ArduinoIO/Release/libArduinoIO.a(ExternalEepromInputStream.o)
                0x000000000000111a                _ZN25ExternalEepromInputStream5resetEv
 .text._ZN25ExternalEepromInputStream4seekEj
                0x0000000000001126       0x12 /work/opensource/personal/microcontroller/arduino/ArduinoLibraries/ArduinoIO/Release/libArduinoIO.a(ExternalEepromInputStream.o)
                0x0000000000001126                _ZN25ExternalEepromInputStream4seekEj
 .text._ZN25ExternalEepromInputStreamC1EP14ExternalEeprom
                0x0000000000001138       0x36 /work/opensource/personal/microcontroller/arduino/ArduinoLibraries/ArduinoIO/Release/libArduinoIO.a(ExternalEepromInputStream.o)
                0x0000000000001138                _ZN25ExternalEepromInputStreamC1EP14ExternalEeprom
 .text._ZTv0_n8_N25ExternalEepromInputStream9availableEv
                0x000000000000116e       0x12 /work/opensource/personal/microcontroller/arduino/ArduinoLibraries/ArduinoIO/Release/libArduinoIO.a(ExternalEepromInputStream.o)
                0x000000000000116e                _ZTv0_n8_N25ExternalEepromInputStream9availableEv
 .text._ZTv0_n14_N25ExternalEepromInputStream4readEv
                0x0000000000001180       0x12 /work/opensource/personal/microcontroller/arduino/ArduinoLibraries/ArduinoIO/Release/libArduinoIO.a(ExternalEepromInputStream.o)
                0x0000000000001180                _ZTv0_n14_N25ExternalEepromInputStream4readEv
 .text._ZTv0_n18_N25ExternalEepromInputStream4readEPhii
                0x0000000000001192       0x14 /work/opensource/personal/microcontroller/arduino/ArduinoLibraries/ArduinoIO/Release/libArduinoIO.a(ExternalEepromInputStream.o)
                0x0000000000001192                _ZTv0_n18_N25ExternalEepromInputStream4readEPhii
 .text._ZTv0_n10_N25ExternalEepromInputStream4markEv
                0x00000000000011a6       0x12 /work/opensource/personal/microcontroller/arduino/ArduinoLibraries/ArduinoIO/Release/libArduinoIO.a(ExternalEepromInputStream.o)
                0x00000000000011a6                _ZTv0_n10_N25ExternalEepromInputStream4markEv
 .text._ZTv0_n12_N25ExternalEepromInputStream13markSupportedEv
                0x00000000000011b8       0x12 /work/opensource/personal/microcontroller/arduino/ArduinoLibraries/ArduinoIO/Release/libArduinoIO.a(ExternalEepromInputStream.o)
                0x00000000000011b8                _ZTv0_n12_N25ExternalEepromInputStream13markSupportedEv
 .text._ZTv0_n20_N25ExternalEepromInputStream5resetEv
                0x00000000000011ca       0x12 /work/opensource/personal/microcontroller/arduino/ArduinoLibraries/ArduinoIO/Release/libArduinoIO.a(ExternalEepromInputStream.o)
                0x00000000000011ca                _ZTv0_n20_N25ExternalEepromInputStream5resetEv
 .text._ZN16DataOutputStream5writeEPhi
                0x00000000000011dc        0xe /work/opensource/personal/microcontroller/arduino/ArduinoLibraries/ArduinoIO/Release/libArduinoIO.a(DataOutputStream.o)
                0x00000000000011dc                _ZN16DataOutputStream5writeEPhi
 .text._ZN16DataOutputStream5writeEh
                0x00000000000011ea        0xe /work/opensource/personal/microcontroller/arduino/ArduinoLibraries/ArduinoIO/Release/libArduinoIO.a(DataOutputStream.o)
                0x00000000000011ea                _ZN16DataOutputStream5writeEh
 .text._ZN16DataOutputStream9writeByteEh
                0x00000000000011f8       0x18 /work/opensource/personal/microcontroller/arduino/ArduinoLibraries/ArduinoIO/Release/libArduinoIO.a(DataOutputStream.o)
                0x00000000000011f8                _ZN16DataOutputStream9writeByteEh
 .text._ZN16DataOutputStream10writeBytesEPhi
                0x0000000000001210       0x52 /work/opensource/personal/microcontroller/arduino/ArduinoLibraries/ArduinoIO/Release/libArduinoIO.a(DataOutputStream.o)
                0x0000000000001210                _ZN16DataOutputStream10writeBytesEPhi
 .text._ZN16DataOutputStream12writeBooleanEb
                0x0000000000001262       0x18 /work/opensource/personal/microcontroller/arduino/ArduinoLibraries/ArduinoIO/Release/libArduinoIO.a(DataOutputStream.o)
                0x0000000000001262                _ZN16DataOutputStream12writeBooleanEb
 .text._ZN16DataOutputStream9writeCharEc
                0x000000000000127a       0x18 /work/opensource/personal/microcontroller/arduino/ArduinoLibraries/ArduinoIO/Release/libArduinoIO.a(DataOutputStream.o)
                0x000000000000127a                _ZN16DataOutputStream9writeCharEc
 .text._ZN16DataOutputStream17writeUnsignedCharEh
                0x0000000000001292       0x18 /work/opensource/personal/microcontroller/arduino/ArduinoLibraries/ArduinoIO/Release/libArduinoIO.a(DataOutputStream.o)
                0x0000000000001292                _ZN16DataOutputStream17writeUnsignedCharEh
 .text._ZN16DataOutputStream8writeIntEi
                0x00000000000012aa       0x30 /work/opensource/personal/microcontroller/arduino/ArduinoLibraries/ArduinoIO/Release/libArduinoIO.a(DataOutputStream.o)
                0x00000000000012aa                _ZN16DataOutputStream8writeIntEi
 .text._ZN16DataOutputStream16writeUnsignedIntEj
                0x00000000000012da        0xe /work/opensource/personal/microcontroller/arduino/ArduinoLibraries/ArduinoIO/Release/libArduinoIO.a(DataOutputStream.o)
                0x00000000000012da                _ZN16DataOutputStream16writeUnsignedIntEj
 .text._ZN16DataOutputStream9writeWordEj
                0x00000000000012e8        0xe /work/opensource/personal/microcontroller/arduino/ArduinoLibraries/ArduinoIO/Release/libArduinoIO.a(DataOutputStream.o)
                0x00000000000012e8                _ZN16DataOutputStream9writeWordEj
 .text._ZN16DataOutputStream9writeLongEl
                0x00000000000012f6       0x3a /work/opensource/personal/microcontroller/arduino/ArduinoLibraries/ArduinoIO/Release/libArduinoIO.a(DataOutputStream.o)
                0x00000000000012f6                _ZN16DataOutputStream9writeLongEl
 .text._ZN16DataOutputStream17writeUnsignedLongEm
                0x0000000000001330        0xe /work/opensource/personal/microcontroller/arduino/ArduinoLibraries/ArduinoIO/Release/libArduinoIO.a(DataOutputStream.o)
                0x0000000000001330                _ZN16DataOutputStream17writeUnsignedLongEm
 .text._ZN16DataOutputStream10writeFloatEf
                0x000000000000133e       0x3a /work/opensource/personal/microcontroller/arduino/ArduinoLibraries/ArduinoIO/Release/libArduinoIO.a(DataOutputStream.o)
                0x000000000000133e                _ZN16DataOutputStream10writeFloatEf
 .text._ZN16DataOutputStream11writeDoubleEd
                0x0000000000001378       0x3a /work/opensource/personal/microcontroller/arduino/ArduinoLibraries/ArduinoIO/Release/libArduinoIO.a(DataOutputStream.o)
                0x0000000000001378                _ZN16DataOutputStream11writeDoubleEd
 .text._ZN16DataOutputStreamC2EP12OutputStream
                0x00000000000013b2       0x10 /work/opensource/personal/microcontroller/arduino/ArduinoLibraries/ArduinoIO/Release/libArduinoIO.a(DataOutputStream.o)
                0x00000000000013b2                _ZN16DataOutputStreamC2EP12OutputStream
                0x00000000000013b2                _ZN16DataOutputStreamC1EP12OutputStream
 .text._ZN15DataInputStream8readByteEv
                0x00000000000013c2       0x1a /work/opensource/personal/microcontroller/arduino/ArduinoLibraries/ArduinoIO/Release/libArduinoIO.a(DataInputStream.o)
                0x00000000000013c2                _ZN15DataInputStream8readByteEv
 .text._ZN15DataInputStream11readBooleanEv
                0x00000000000013dc       0x24 /work/opensource/personal/microcontroller/arduino/ArduinoLibraries/ArduinoIO/Release/libArduinoIO.a(DataInputStream.o)
                0x00000000000013dc                _ZN15DataInputStream11readBooleanEv
 .text._ZN15DataInputStream8readCharEv
                0x0000000000001400       0x1a /work/opensource/personal/microcontroller/arduino/ArduinoLibraries/ArduinoIO/Release/libArduinoIO.a(DataInputStream.o)
                0x0000000000001400                _ZN15DataInputStream8readCharEv
 .text._ZN15DataInputStream16readUnsignedCharEv
                0x000000000000141a       0x1a /work/opensource/personal/microcontroller/arduino/ArduinoLibraries/ArduinoIO/Release/libArduinoIO.a(DataInputStream.o)
                0x000000000000141a                _ZN15DataInputStream16readUnsignedCharEv
 .text._ZN15DataInputStream7readIntEv
                0x0000000000001434       0x34 /work/opensource/personal/microcontroller/arduino/ArduinoLibraries/ArduinoIO/Release/libArduinoIO.a(DataInputStream.o)
                0x0000000000001434                _ZN15DataInputStream7readIntEv
 .text._ZN15DataInputStream15readUnsignedIntEv
                0x0000000000001468        0xe /work/opensource/personal/microcontroller/arduino/ArduinoLibraries/ArduinoIO/Release/libArduinoIO.a(DataInputStream.o)
                0x0000000000001468                _ZN15DataInputStream15readUnsignedIntEv
 .text._ZN15DataInputStream8readWordEv
                0x0000000000001476        0xe /work/opensource/personal/microcontroller/arduino/ArduinoLibraries/ArduinoIO/Release/libArduinoIO.a(DataInputStream.o)
                0x0000000000001476                _ZN15DataInputStream8readWordEv
 .text._ZN15DataInputStream8readLongEv
                0x0000000000001484       0x42 /work/opensource/personal/microcontroller/arduino/ArduinoLibraries/ArduinoIO/Release/libArduinoIO.a(DataInputStream.o)
                0x0000000000001484                _ZN15DataInputStream8readLongEv
 .text._ZN15DataInputStream16readUnsignedLongEv
                0x00000000000014c6        0xe /work/opensource/personal/microcontroller/arduino/ArduinoLibraries/ArduinoIO/Release/libArduinoIO.a(DataInputStream.o)
                0x00000000000014c6                _ZN15DataInputStream16readUnsignedLongEv
 .text._ZN15DataInputStream9readFloatEv
                0x00000000000014d4       0x42 /work/opensource/personal/microcontroller/arduino/ArduinoLibraries/ArduinoIO/Release/libArduinoIO.a(DataInputStream.o)
                0x00000000000014d4                _ZN15DataInputStream9readFloatEv
 .text._ZN15DataInputStream10readDoubleEv
                0x0000000000001516       0x12 /work/opensource/personal/microcontroller/arduino/ArduinoLibraries/ArduinoIO/Release/libArduinoIO.a(DataInputStream.o)
                0x0000000000001516                _ZN15DataInputStream10readDoubleEv
 .text._ZN15DataInputStream9readFullyEPhi
                0x0000000000001528       0x52 /work/opensource/personal/microcontroller/arduino/ArduinoLibraries/ArduinoIO/Release/libArduinoIO.a(DataInputStream.o)
                0x0000000000001528                _ZN15DataInputStream9readFullyEPhi
 .text._ZN15DataInputStream9skipBytesEj
                0x000000000000157a       0x18 /work/opensource/personal/microcontroller/arduino/ArduinoLibraries/ArduinoIO/Release/libArduinoIO.a(DataInputStream.o)
                0x000000000000157a                _ZN15DataInputStream9skipBytesEj
 .text._ZN15DataInputStreamC2EP11InputStream
                0x0000000000001592       0x10 /work/opensource/personal/microcontroller/arduino/ArduinoLibraries/ArduinoIO/Release/libArduinoIO.a(DataInputStream.o)
                0x0000000000001592                _ZN15DataInputStreamC2EP11InputStream
                0x0000000000001592                _ZN15DataInputStreamC1EP11InputStream
 .text._ZN21ByteArrayOutputStreamD1Ev
                0x00000000000015a2       0x14 /work/opensource/personal/microcontroller/arduino/ArduinoLibraries/ArduinoIO/Release/libArduinoIO.a(ByteArrayOutputStream.o)
                0x00000000000015a2                _ZN21ByteArrayOutputStreamD1Ev
 .text._ZN21ByteArrayOutputStream5writeEh
                0x00000000000015b6       0x1c /work/opensource/personal/microcontroller/arduino/ArduinoLibraries/ArduinoIO/Release/libArduinoIO.a(ByteArrayOutputStream.o)
                0x00000000000015b6                _ZN21ByteArrayOutputStream5writeEh
 .text._ZN21ByteArrayOutputStream4markEv
                0x00000000000015d2        0xc /work/opensource/personal/microcontroller/arduino/ArduinoLibraries/ArduinoIO/Release/libArduinoIO.a(ByteArrayOutputStream.o)
                0x00000000000015d2                _ZN21ByteArrayOutputStream4markEv
 .text._ZN21ByteArrayOutputStream13markSupportedEv
                0x00000000000015de        0x4 /work/opensource/personal/microcontroller/arduino/ArduinoLibraries/ArduinoIO/Release/libArduinoIO.a(ByteArrayOutputStream.o)
                0x00000000000015de                _ZN21ByteArrayOutputStream13markSupportedEv
 .text._ZN21ByteArrayOutputStream5resetEv
                0x00000000000015e2        0xc /work/opensource/personal/microcontroller/arduino/ArduinoLibraries/ArduinoIO/Release/libArduinoIO.a(ByteArrayOutputStream.o)
                0x00000000000015e2                _ZN21ByteArrayOutputStream5resetEv
 .text._ZN21ByteArrayOutputStream4seekEj
                0x00000000000015ee       0x12 /work/opensource/personal/microcontroller/arduino/ArduinoLibraries/ArduinoIO/Release/libArduinoIO.a(ByteArrayOutputStream.o)
                0x00000000000015ee                _ZN21ByteArrayOutputStream4seekEj
 .text._ZN21ByteArrayOutputStreamD0Ev
                0x0000000000001600       0x16 /work/opensource/personal/microcontroller/arduino/ArduinoLibraries/ArduinoIO/Release/libArduinoIO.a(ByteArrayOutputStream.o)
                0x0000000000001600                _ZN21ByteArrayOutputStreamD0Ev
 .text._ZN21ByteArrayOutputStreamC1EPhj
                0x0000000000001616       0x58 /work/opensource/personal/microcontroller/arduino/ArduinoLibraries/ArduinoIO/Release/libArduinoIO.a(ByteArrayOutputStream.o)
                0x0000000000001616                _ZN21ByteArrayOutputStreamC1EPhj
 .text._ZTv0_n10_N21ByteArrayOutputStream5writeEh
                0x000000000000166e       0x12 /work/opensource/personal/microcontroller/arduino/ArduinoLibraries/ArduinoIO/Release/libArduinoIO.a(ByteArrayOutputStream.o)
                0x000000000000166e                _ZTv0_n10_N21ByteArrayOutputStream5writeEh
 .text._ZTv0_n16_N21ByteArrayOutputStream4markEv
                0x0000000000001680       0x12 /work/opensource/personal/microcontroller/arduino/ArduinoLibraries/ArduinoIO/Release/libArduinoIO.a(ByteArrayOutputStream.o)
                0x0000000000001680                _ZTv0_n16_N21ByteArrayOutputStream4markEv
 .text._ZTv0_n18_N21ByteArrayOutputStream13markSupportedEv
                0x0000000000001692       0x12 /work/opensource/personal/microcontroller/arduino/ArduinoLibraries/ArduinoIO/Release/libArduinoIO.a(ByteArrayOutputStream.o)
                0x0000000000001692                _ZTv0_n18_N21ByteArrayOutputStream13markSupportedEv
 .text._ZTv0_n20_N21ByteArrayOutputStream5resetEv
                0x00000000000016a4       0x12 /work/opensource/personal/microcontroller/arduino/ArduinoLibraries/ArduinoIO/Release/libArduinoIO.a(ByteArrayOutputStream.o)
                0x00000000000016a4                _ZTv0_n20_N21ByteArrayOutputStream5resetEv
 .text._ZN20ByteArrayInputStream9availableEv
                0x00000000000016b6       0x1a /work/opensource/personal/microcontroller/arduino/ArduinoLibraries/ArduinoIO/Release/libArduinoIO.a(ByteArrayInputStream.o)
                0x00000000000016b6                _ZN20ByteArrayInputStream9availableEv
 .text._ZN20ByteArrayInputStream4markEv
                0x00000000000016d0        0xc /work/opensource/personal/microcontroller/arduino/ArduinoLibraries/ArduinoIO/Release/libArduinoIO.a(ByteArrayInputStream.o)
                0x00000000000016d0                _ZN20ByteArrayInputStream4markEv
 .text._ZN20ByteArrayInputStream13markSupportedEv
                0x00000000000016dc        0x4 /work/opensource/personal/microcontroller/arduino/ArduinoLibraries/ArduinoIO/Release/libArduinoIO.a(ByteArrayInputStream.o)
                0x00000000000016dc                _ZN20ByteArrayInputStream13markSupportedEv
 .text._ZN20ByteArrayInputStream4readEv
                0x00000000000016e0       0x2e /work/opensource/personal/microcontroller/arduino/ArduinoLibraries/ArduinoIO/Release/libArduinoIO.a(ByteArrayInputStream.o)
                0x00000000000016e0                _ZN20ByteArrayInputStream4readEv
 .text._ZN20ByteArrayInputStream5resetEv
                0x000000000000170e        0xc /work/opensource/personal/microcontroller/arduino/ArduinoLibraries/ArduinoIO/Release/libArduinoIO.a(ByteArrayInputStream.o)
                0x000000000000170e                _ZN20ByteArrayInputStream5resetEv
 .text._ZN20ByteArrayInputStream4seekEj
                0x000000000000171a       0x12 /work/opensource/personal/microcontroller/arduino/ArduinoLibraries/ArduinoIO/Release/libArduinoIO.a(ByteArrayInputStream.o)
                0x000000000000171a                _ZN20ByteArrayInputStream4seekEj
 .text._ZN20ByteArrayInputStreamC1EPhj
                0x000000000000172c       0x24 /work/opensource/personal/microcontroller/arduino/ArduinoLibraries/ArduinoIO/Release/libArduinoIO.a(ByteArrayInputStream.o)
                0x000000000000172c                _ZN20ByteArrayInputStreamC1EPhj
 .text._ZTv0_n8_N20ByteArrayInputStream9availableEv
                0x0000000000001750       0x12 /work/opensource/personal/microcontroller/arduino/ArduinoLibraries/ArduinoIO/Release/libArduinoIO.a(ByteArrayInputStream.o)
                0x0000000000001750                _ZTv0_n8_N20ByteArrayInputStream9availableEv
 .text._ZTv0_n10_N20ByteArrayInputStream4markEv
                0x0000000000001762       0x12 /work/opensource/personal/microcontroller/arduino/ArduinoLibraries/ArduinoIO/Release/libArduinoIO.a(ByteArrayInputStream.o)
                0x0000000000001762                _ZTv0_n10_N20ByteArrayInputStream4markEv
 .text._ZTv0_n12_N20ByteArrayInputStream13markSupportedEv
                0x0000000000001774       0x12 /work/opensource/personal/microcontroller/arduino/ArduinoLibraries/ArduinoIO/Release/libArduinoIO.a(ByteArrayInputStream.o)
                0x0000000000001774                _ZTv0_n12_N20ByteArrayInputStream13markSupportedEv
 .text._ZTv0_n14_N20ByteArrayInputStream4readEv
                0x0000000000001786       0x12 /work/opensource/personal/microcontroller/arduino/ArduinoLibraries/ArduinoIO/Release/libArduinoIO.a(ByteArrayInputStream.o)
                0x0000000000001786                _ZTv0_n14_N20ByteArrayInputStream4readEv
 .text._ZTv0_n20_N20ByteArrayInputStream5resetEv
                0x0000000000001798       0x12 /work/opensource/personal/microcontroller/arduino/ArduinoLibraries/ArduinoIO/Release/libArduinoIO.a(ByteArrayInputStream.o)
                0x0000000000001798                _ZTv0_n20_N20ByteArrayInputStream5resetEv
 .text._ZN14ExternalEepromD2Ev
                0x00000000000017aa        0xc /work/opensource/personal/microcontroller/arduino/ArduinoLibraries/ArduinoMemoryDriver/Release/libArduinoMemoryDriver.a(ExternalEeprom.o)
                0x00000000000017aa                _ZN14ExternalEepromD2Ev
                0x00000000000017aa                _ZN14ExternalEepromD1Ev
 .text._ZN14ExternalEeprom5writeEjh
                0x00000000000017b6       0x2c /work/opensource/personal/microcontroller/arduino/ArduinoLibraries/ArduinoMemoryDriver/Release/libArduinoMemoryDriver.a(ExternalEeprom.o)
                0x00000000000017b6                _ZN14ExternalEeprom5writeEjh
 .text._ZN14ExternalEeprom4readEj
                0x00000000000017e2       0x36 /work/opensource/personal/microcontroller/arduino/ArduinoLibraries/ArduinoMemoryDriver/Release/libArduinoMemoryDriver.a(ExternalEeprom.o)
                0x00000000000017e2                _ZN14ExternalEeprom4readEj
 .text._ZN14ExternalEeprom9readBytesEjPhi
                0x0000000000001818       0x9e /work/opensource/personal/microcontroller/arduino/ArduinoLibraries/ArduinoMemoryDriver/Release/libArduinoMemoryDriver.a(ExternalEeprom.o)
                0x0000000000001818                _ZN14ExternalEeprom9readBytesEjPhi
 .text._ZN14ExternalEepromD0Ev
                0x00000000000018b6        0xe /work/opensource/personal/microcontroller/arduino/ArduinoLibraries/ArduinoMemoryDriver/Release/libArduinoMemoryDriver.a(ExternalEeprom.o)
                0x00000000000018b6                _ZN14ExternalEepromD0Ev
 .text._ZN14ExternalEepromC2Ehij
                0x00000000000018c4       0x36 /work/opensource/personal/microcontroller/arduino/ArduinoLibraries/ArduinoMemoryDriver/Release/libArduinoMemoryDriver.a(ExternalEeprom.o)
                0x00000000000018c4                _ZN14ExternalEepromC2Ehij
                0x00000000000018c4                _ZN14ExternalEepromC1Ehij
 .text._ZN14ExternalEeprom9endOfPageEj
                0x00000000000018fa       0x2e /work/opensource/personal/microcontroller/arduino/ArduinoLibraries/ArduinoMemoryDriver/Release/libArduinoMemoryDriver.a(ExternalEeprom.o)
                0x00000000000018fa                _ZN14ExternalEeprom9endOfPageEj
 .text._ZN14ExternalEeprom10writeBytesEjPhi
                0x0000000000001928       0x9e /work/opensource/personal/microcontroller/arduino/ArduinoLibraries/ArduinoMemoryDriver/Release/libArduinoMemoryDriver.a(ExternalEeprom.o)
                0x0000000000001928                _ZN14ExternalEeprom10writeBytesEjPhi
 .text._ZN14ExternalEeprom8setBytesEjhi
                0x00000000000019c6      0x10a /work/opensource/personal/microcontroller/arduino/ArduinoLibraries/ArduinoMemoryDriver/Release/libArduinoMemoryDriver.a(ExternalEeprom.o)
                0x00000000000019c6                _ZN14ExternalEeprom8setBytesEjhi
 .text._ZN21External24cl256EepromC2Eh
                0x0000000000001ad0       0x22 /work/opensource/personal/microcontroller/arduino/ArduinoLibraries/ArduinoMemoryDriver/Release/libArduinoMemoryDriver.a(External24cl256Eeprom.o)
                0x0000000000001ad0                _ZN21External24cl256EepromC1Eh
                0x0000000000001ad0                _ZN21External24cl256EepromC2Eh
 .text._ZN24RegisterBasedWiredDeviceC2Eh
                0x0000000000001af2        0x2 /work/opensource/personal/microcontroller/arduino/ArduinoLibraries/ArduinoDevice/Release/libArduinoDevice.a(RegisterBasedWiredDevice.o)
                0x0000000000001af2                _ZN24RegisterBasedWiredDeviceC2Eh
                0x0000000000001af2                _ZN24RegisterBasedWiredDeviceC1Eh
 .text._ZN24RegisterBasedWiredDevice18writeRegisterBlockEhPhh
                0x0000000000001af4       0x48 /work/opensource/personal/microcontroller/arduino/ArduinoLibraries/ArduinoDevice/Release/libArduinoDevice.a(RegisterBasedWiredDevice.o)
                0x0000000000001af4                _ZN24RegisterBasedWiredDevice18writeRegisterBlockEhPhh
 .text._ZN24RegisterBasedWiredDevice13writeRegisterEhh
                0x0000000000001b3c       0x1e /work/opensource/personal/microcontroller/arduino/ArduinoLibraries/ArduinoDevice/Release/libArduinoDevice.a(RegisterBasedWiredDevice.o)
                0x0000000000001b3c                _ZN24RegisterBasedWiredDevice13writeRegisterEhh
 .text._ZN24RegisterBasedWiredDevice17readRegisterBlockEhPhh
                0x0000000000001b5a       0xbc /work/opensource/personal/microcontroller/arduino/ArduinoLibraries/ArduinoDevice/Release/libArduinoDevice.a(RegisterBasedWiredDevice.o)
                0x0000000000001b5a                _ZN24RegisterBasedWiredDevice17readRegisterBlockEhPhh
 .text._ZN24RegisterBasedWiredDevice12readRegisterEh
                0x0000000000001c16       0x24 /work/opensource/personal/microcontroller/arduino/ArduinoLibraries/ArduinoDevice/Release/libArduinoDevice.a(RegisterBasedWiredDevice.o)
                0x0000000000001c16                _ZN24RegisterBasedWiredDevice12readRegisterEh
 .text._ZN24RegisterBasedWiredDevice21configureRegisterBitsEhhh
                0x0000000000001c3a       0x3e /work/opensource/personal/microcontroller/arduino/ArduinoLibraries/ArduinoDevice/Release/libArduinoDevice.a(RegisterBasedWiredDevice.o)
                0x0000000000001c3a                _ZN24RegisterBasedWiredDevice21configureRegisterBitsEhhh
 .text._ZN22EepromBasedWiredDeviceD2Ev
                0x0000000000001c78        0xc /work/opensource/personal/microcontroller/arduino/ArduinoLibraries/ArduinoDevice/Release/libArduinoDevice.a(EepromBasedWiredDevice.o)
                0x0000000000001c78                _ZN22EepromBasedWiredDeviceD1Ev
                0x0000000000001c78                _ZN22EepromBasedWiredDeviceD2Ev
 .text._ZN22EepromBasedWiredDeviceD0Ev
                0x0000000000001c84        0xc /work/opensource/personal/microcontroller/arduino/ArduinoLibraries/ArduinoDevice/Release/libArduinoDevice.a(EepromBasedWiredDevice.o)
                0x0000000000001c84                _ZN22EepromBasedWiredDeviceD0Ev
 .text._ZN7TwoWire5writeEi
                0x0000000000001c90        0xe /work/opensource/personal/microcontroller/arduino/ArduinoLibraries/ArduinoDevice/Release/libArduinoDevice.a(EepromBasedWiredDevice.o)
                0x0000000000001c90                _ZN7TwoWire5writeEi
 .text._ZN22EepromBasedWiredDeviceC2Ehc
                0x0000000000001c9e       0x32 /work/opensource/personal/microcontroller/arduino/ArduinoLibraries/ArduinoDevice/Release/libArduinoDevice.a(EepromBasedWiredDevice.o)
                0x0000000000001c9e                _ZN22EepromBasedWiredDeviceC1Ehc
                0x0000000000001c9e                _ZN22EepromBasedWiredDeviceC2Ehc
 .text._ZN22EepromBasedWiredDeviceC2Eh
                0x0000000000001cd0        0x4 /work/opensource/personal/microcontroller/arduino/ArduinoLibraries/ArduinoDevice/Release/libArduinoDevice.a(EepromBasedWiredDevice.o)
                0x0000000000001cd0                _ZN22EepromBasedWiredDeviceC2Eh
                0x0000000000001cd0                _ZN22EepromBasedWiredDeviceC1Eh
 .text._ZN22EepromBasedWiredDevice14setAddressSizeEc
                0x0000000000001cd4        0x6 /work/opensource/personal/microcontroller/arduino/ArduinoLibraries/ArduinoDevice/Release/libArduinoDevice.a(EepromBasedWiredDevice.o)
                0x0000000000001cd4                _ZN22EepromBasedWiredDevice14setAddressSizeEc
 .text._ZN22EepromBasedWiredDevice10writeBlockEjPhi
                0x0000000000001cda       0x7c /work/opensource/personal/microcontroller/arduino/ArduinoLibraries/ArduinoDevice/Release/libArduinoDevice.a(EepromBasedWiredDevice.o)
                0x0000000000001cda                _ZN22EepromBasedWiredDevice10writeBlockEjPhi
 .text._ZN22EepromBasedWiredDevice9readBlockEjPhi
                0x0000000000001d56      0x166 /work/opensource/personal/microcontroller/arduino/ArduinoLibraries/ArduinoDevice/Release/libArduinoDevice.a(EepromBasedWiredDevice.o)
                0x0000000000001d56                _ZN22EepromBasedWiredDevice9readBlockEjPhi
 .text._ZN11WiredDeviceC2Eh
                0x0000000000001ebc        0xa /work/opensource/personal/microcontroller/arduino/ArduinoLibraries/ArduinoDevice/Release/libArduinoDevice.a(WiredDevice.o)
                0x0000000000001ebc                _ZN11WiredDeviceC2Eh
                0x0000000000001ebc                _ZN11WiredDeviceC1Eh
 .text._ZN11WiredDevice16getDeviceAddressEv
                0x0000000000001ec6        0x6 /work/opensource/personal/microcontroller/arduino/ArduinoLibraries/ArduinoDevice/Release/libArduinoDevice.a(WiredDevice.o)
                0x0000000000001ec6                _ZN11WiredDevice16getDeviceAddressEv
 .text._ZN7TwoWire9availableEv
                0x0000000000001ecc       0x10 /work/opensource/personal/microcontroller/arduino/ArduinoLibraries/ArduinoCore/Release/libArduinoCore.a(Wire.o)
                0x0000000000001ecc                _ZN7TwoWire9availableEv
 .text._ZN7TwoWire4readEv
                0x0000000000001edc       0x26 /work/opensource/personal/microcontroller/arduino/ArduinoLibraries/ArduinoCore/Release/libArduinoCore.a(Wire.o)
                0x0000000000001edc                _ZN7TwoWire4readEv
 .text._ZN7TwoWire4peekEv
                0x0000000000001f02       0x1e /work/opensource/personal/microcontroller/arduino/ArduinoLibraries/ArduinoCore/Release/libArduinoCore.a(Wire.o)
                0x0000000000001f02                _ZN7TwoWire4peekEv
 .text._ZN7TwoWire5flushEv
                0x0000000000001f20        0x2 /work/opensource/personal/microcontroller/arduino/ArduinoLibraries/ArduinoCore/Release/libArduinoCore.a(Wire.o)
                0x0000000000001f20                _ZN7TwoWire5flushEv
 .text._ZN7TwoWire5writeEPKhj
                0x0000000000001f22       0x5a /work/opensource/personal/microcontroller/arduino/ArduinoLibraries/ArduinoCore/Release/libArduinoCore.a(Wire.o)
                0x0000000000001f22                _ZN7TwoWire5writeEPKhj
 .text._ZN7TwoWire5writeEh
                0x0000000000001f7c       0x5e /work/opensource/personal/microcontroller/arduino/ArduinoLibraries/ArduinoCore/Release/libArduinoCore.a(Wire.o)
                0x0000000000001f7c                _ZN7TwoWire5writeEh
 .text._ZN7TwoWireC2Ev
                0x0000000000001fda       0x20 /work/opensource/personal/microcontroller/arduino/ArduinoLibraries/ArduinoCore/Release/libArduinoCore.a(Wire.o)
                0x0000000000001fda                _ZN7TwoWireC2Ev
                0x0000000000001fda                _ZN7TwoWireC1Ev
 .text._ZN7TwoWire5beginEv
                0x0000000000001ffa       0x12 /work/opensource/personal/microcontroller/arduino/ArduinoLibraries/ArduinoCore/Release/libArduinoCore.a(Wire.o)
                0x0000000000001ffa                _ZN7TwoWire5beginEv
 .text._ZN7TwoWire17beginTransmissionEh
                0x000000000000200c       0x14 /work/opensource/personal/microcontroller/arduino/ArduinoLibraries/ArduinoCore/Release/libArduinoCore.a(Wire.o)
                0x000000000000200c                _ZN7TwoWire17beginTransmissionEh
 .text._ZN7TwoWire15endTransmissionEh
                0x0000000000002020       0x24 /work/opensource/personal/microcontroller/arduino/ArduinoLibraries/ArduinoCore/Release/libArduinoCore.a(Wire.o)
                0x0000000000002020                _ZN7TwoWire15endTransmissionEh
 .text._ZN7TwoWire11requestFromEhhmhh
                0x0000000000002044       0x9c /work/opensource/personal/microcontroller/arduino/ArduinoLibraries/ArduinoCore/Release/libArduinoCore.a(Wire.o)
                0x0000000000002044                _ZN7TwoWire11requestFromEhhmhh
 .text._ZN7TwoWire11requestFromEhhh
                0x00000000000020e0       0x1e /work/opensource/personal/microcontroller/arduino/ArduinoLibraries/ArduinoCore/Release/libArduinoCore.a(Wire.o)
                0x00000000000020e0                _ZN7TwoWire11requestFromEhhh
 .text._ZN7TwoWire11requestFromEhh
                0x00000000000020fe        0x4 /work/opensource/personal/microcontroller/arduino/ArduinoLibraries/ArduinoCore/Release/libArduinoCore.a(Wire.o)
                0x00000000000020fe                _ZN7TwoWire11requestFromEhh
 .text._ZN7TwoWire11requestFromEii
                0x0000000000002102        0x4 /work/opensource/personal/microcontroller/arduino/ArduinoLibraries/ArduinoCore/Release/libArduinoCore.a(Wire.o)
                0x0000000000002102                _ZN7TwoWire11requestFromEii
 .text._ZN7TwoWire15endTransmissionEv
                0x0000000000002106        0x4 /work/opensource/personal/microcontroller/arduino/ArduinoLibraries/ArduinoCore/Release/libArduinoCore.a(Wire.o)
                0x0000000000002106                _ZN7TwoWire15endTransmissionEv
 .text.startup._GLOBAL__sub_I__ZN7TwoWire8rxBufferE
                0x000000000000210a        0x6 /work/opensource/personal/microcontroller/arduino/ArduinoLibraries/ArduinoCore/Release/libArduinoCore.a(Wire.o)
 .text._ZN14SoftwareSerial4readEv
                0x0000000000002110       0x42 /work/opensource/personal/microcontroller/arduino/ArduinoLibraries/ArduinoCore/Release/libArduinoCore.a(SoftwareSerial.o)
                0x0000000000002110                _ZN14SoftwareSerial4readEv
 .text._ZN14SoftwareSerial5writeEh
                0x0000000000002152       0xa4 /work/opensource/personal/microcontroller/arduino/ArduinoLibraries/ArduinoCore/Release/libArduinoCore.a(SoftwareSerial.o)
                0x0000000000002152                _ZN14SoftwareSerial5writeEh
 .text._ZN14SoftwareSerial5flushEv
                0x00000000000021f6        0x2 /work/opensource/personal/microcontroller/arduino/ArduinoLibraries/ArduinoCore/Release/libArduinoCore.a(SoftwareSerial.o)
                0x00000000000021f6                _ZN14SoftwareSerial5flushEv
 .text._ZN14SoftwareSerial4peekEv
                0x00000000000021f8       0x30 /work/opensource/personal/microcontroller/arduino/ArduinoLibraries/ArduinoCore/Release/libArduinoCore.a(SoftwareSerial.o)
                0x00000000000021f8                _ZN14SoftwareSerial4peekEv
 .text._ZN14SoftwareSerial9availableEv
                0x0000000000002228       0x2e /work/opensource/personal/microcontroller/arduino/ArduinoLibraries/ArduinoCore/Release/libArduinoCore.a(SoftwareSerial.o)
                0x0000000000002228                _ZN14SoftwareSerial9availableEv
 .text._ZN14SoftwareSerial13stopListeningEv
                0x0000000000002256       0x2c /work/opensource/personal/microcontroller/arduino/ArduinoLibraries/ArduinoCore/Release/libArduinoCore.a(SoftwareSerial.o)
                0x0000000000002256                _ZN14SoftwareSerial13stopListeningEv
 .text.__vector_3
                0x0000000000002282       0xf4 /work/opensource/personal/microcontroller/arduino/ArduinoLibraries/ArduinoCore/Release/libArduinoCore.a(SoftwareSerial.o)
                0x0000000000002282                __vector_3
                0x0000000000002282                __vector_5
                0x0000000000002282                __vector_4
 .text._ZN14SoftwareSerialD2Ev
                0x0000000000002376        0xc /work/opensource/personal/microcontroller/arduino/ArduinoLibraries/ArduinoCore/Release/libArduinoCore.a(SoftwareSerial.o)
                0x0000000000002376                _ZN14SoftwareSerialD2Ev
                0x0000000000002376                _ZN14SoftwareSerialD1Ev
 .text._ZN14SoftwareSerial5setTXEh
                0x0000000000002382       0x4e /work/opensource/personal/microcontroller/arduino/ArduinoLibraries/ArduinoCore/Release/libArduinoCore.a(SoftwareSerial.o)
                0x0000000000002382                _ZN14SoftwareSerial5setTXEh
 .text._ZN14SoftwareSerial5setRXEh
                0x00000000000023d0       0x4e /work/opensource/personal/microcontroller/arduino/ArduinoLibraries/ArduinoCore/Release/libArduinoCore.a(SoftwareSerial.o)
                0x00000000000023d0                _ZN14SoftwareSerial5setRXEh
 .text._ZN14SoftwareSerialC2Ehhb
                0x000000000000241e       0x5c /work/opensource/personal/microcontroller/arduino/ArduinoLibraries/ArduinoCore/Release/libArduinoCore.a(SoftwareSerial.o)
                0x000000000000241e                _ZN14SoftwareSerialC2Ehhb
                0x000000000000241e                _ZN14SoftwareSerialC1Ehhb
 .text._ZN14HardwareSerial9availableEv
                0x000000000000247a       0x16 /work/opensource/personal/microcontroller/arduino/ArduinoLibraries/ArduinoCore/Release/libArduinoCore.a(HardwareSerial.o)
                0x000000000000247a                _ZN14HardwareSerial9availableEv
 .text._ZN14HardwareSerial4peekEv
                0x0000000000002490       0x1c /work/opensource/personal/microcontroller/arduino/ArduinoLibraries/ArduinoCore/Release/libArduinoCore.a(HardwareSerial.o)
                0x0000000000002490                _ZN14HardwareSerial4peekEv
 .text._ZN14HardwareSerial4readEv
                0x00000000000024ac       0x28 /work/opensource/personal/microcontroller/arduino/ArduinoLibraries/ArduinoCore/Release/libArduinoCore.a(HardwareSerial.o)
                0x00000000000024ac                _ZN14HardwareSerial4readEv
 .text._Z14serialEventRunv
                0x00000000000024d4       0x1a /work/opensource/personal/microcontroller/arduino/ArduinoLibraries/ArduinoCore/Release/libArduinoCore.a(HardwareSerial.o)
                0x00000000000024d4                _Z14serialEventRunv
 .text._ZN14HardwareSerial17_tx_udr_empty_irqEv
                0x00000000000024ee       0x42 /work/opensource/personal/microcontroller/arduino/ArduinoLibraries/ArduinoCore/Release/libArduinoCore.a(HardwareSerial.o)
                0x00000000000024ee                _ZN14HardwareSerial17_tx_udr_empty_irqEv
 .text._ZN14HardwareSerial5flushEv
                0x0000000000002530       0x42 /work/opensource/personal/microcontroller/arduino/ArduinoLibraries/ArduinoCore/Release/libArduinoCore.a(HardwareSerial.o)
                0x0000000000002530                _ZN14HardwareSerial5flushEv
 .text._ZN14HardwareSerial5writeEh
                0x0000000000002572       0xc8 /work/opensource/personal/microcontroller/arduino/ArduinoLibraries/ArduinoCore/Release/libArduinoCore.a(HardwareSerial.o)
                0x0000000000002572                _ZN14HardwareSerial5writeEh
 .text._ZN14HardwareSerial5beginEmh
                0x000000000000263a       0xc0 /work/opensource/personal/microcontroller/arduino/ArduinoLibraries/ArduinoCore/Release/libArduinoCore.a(HardwareSerial.o)
                0x000000000000263a                _ZN14HardwareSerial5beginEmh
 .text.__vector_18
                0x00000000000026fa       0x64 /work/opensource/personal/microcontroller/arduino/ArduinoLibraries/ArduinoCore/Release/libArduinoCore.a(HardwareSerial0.o)
                0x00000000000026fa                __vector_18
 .text.__vector_19
                0x000000000000275e       0x4a /work/opensource/personal/microcontroller/arduino/ArduinoLibraries/ArduinoCore/Release/libArduinoCore.a(HardwareSerial0.o)
                0x000000000000275e                __vector_19
 .text._Z17Serial0_availablev
                0x00000000000027a8       0x12 /work/opensource/personal/microcontroller/arduino/ArduinoLibraries/ArduinoCore/Release/libArduinoCore.a(HardwareSerial0.o)
                0x00000000000027a8                _Z17Serial0_availablev
 .text.startup._GLOBAL__sub_I___vector_18
                0x00000000000027ba       0x86 /work/opensource/personal/microcontroller/arduino/ArduinoLibraries/ArduinoCore/Release/libArduinoCore.a(HardwareSerial0.o)
 .text._ZN5Print5writeEPKhj
                0x0000000000002840       0x50 /work/opensource/personal/microcontroller/arduino/ArduinoLibraries/ArduinoCore/Release/libArduinoCore.a(Print.o)
                0x0000000000002840                _ZN5Print5writeEPKhj
 .text._ZN5Print5writeEPKc
                0x0000000000002890       0x2c /work/opensource/personal/microcontroller/arduino/ArduinoLibraries/ArduinoCore/Release/libArduinoCore.a(Print.o)
                0x0000000000002890                _ZN5Print5writeEPKc
 .text._ZN5Print5printEPKc
                0x00000000000028bc        0x2 /work/opensource/personal/microcontroller/arduino/ArduinoLibraries/ArduinoCore/Release/libArduinoCore.a(Print.o)
                0x00000000000028bc                _ZN5Print5printEPKc
 .text._ZN5Print5printEc
                0x00000000000028be        0xe /work/opensource/personal/microcontroller/arduino/ArduinoLibraries/ArduinoCore/Release/libArduinoCore.a(Print.o)
                0x00000000000028be                _ZN5Print5printEc
 .text._ZN5Print7printlnEv
                0x00000000000028cc        0x6 /work/opensource/personal/microcontroller/arduino/ArduinoLibraries/ArduinoCore/Release/libArduinoCore.a(Print.o)
                0x00000000000028cc                _ZN5Print7printlnEv
 .text._ZN5Print7printlnEPKc
                0x00000000000028d2       0x20 /work/opensource/personal/microcontroller/arduino/ArduinoLibraries/ArduinoCore/Release/libArduinoCore.a(Print.o)
                0x00000000000028d2                _ZN5Print7printlnEPKc
 .text._ZN5Print11printNumberEmh
                0x00000000000028f2       0x9a /work/opensource/personal/microcontroller/arduino/ArduinoLibraries/ArduinoCore/Release/libArduinoCore.a(Print.o)
                0x00000000000028f2                _ZN5Print11printNumberEmh
 .text._ZN5Print5printEli
                0x000000000000298c       0x8e /work/opensource/personal/microcontroller/arduino/ArduinoLibraries/ArduinoCore/Release/libArduinoCore.a(Print.o)
                0x000000000000298c                _ZN5Print5printEli
 .text._ZN5Print7printlnEii
                0x0000000000002a1a       0x2c /work/opensource/personal/microcontroller/arduino/ArduinoLibraries/ArduinoCore/Release/libArduinoCore.a(Print.o)
                0x0000000000002a1a                _ZN5Print7printlnEii
 .text._ZN5Print5printEmi
                0x0000000000002a46       0x18 /work/opensource/personal/microcontroller/arduino/ArduinoLibraries/ArduinoCore/Release/libArduinoCore.a(Print.o)
                0x0000000000002a46                _ZN5Print5printEmi
 .text._ZN5Print7printlnEhi
                0x0000000000002a5e       0x2a /work/opensource/personal/microcontroller/arduino/ArduinoLibraries/ArduinoCore/Release/libArduinoCore.a(Print.o)
                0x0000000000002a5e                _ZN5Print7printlnEhi
 .text._ZN6Stream9timedReadEv
                0x0000000000002a88       0x58 /work/opensource/personal/microcontroller/arduino/ArduinoLibraries/ArduinoCore/Release/libArduinoCore.a(Stream.o)
                0x0000000000002a88                _ZN6Stream9timedReadEv
 .text._ZN6Stream9readBytesEPcj
                0x0000000000002ae0       0x44 /work/opensource/personal/microcontroller/arduino/ArduinoLibraries/ArduinoCore/Release/libArduinoCore.a(Stream.o)
                0x0000000000002ae0                _ZN6Stream9readBytesEPcj
 .text.nothing  0x0000000000002b24        0x2 /work/opensource/personal/microcontroller/arduino/ArduinoLibraries/ArduinoCore/Release/libArduinoCore.a(WInterrupts.o)
 .text.attachInterrupt
                0x0000000000002b26       0x40 /work/opensource/personal/microcontroller/arduino/ArduinoLibraries/ArduinoCore/Release/libArduinoCore.a(WInterrupts.o)
                0x0000000000002b26                attachInterrupt
 .text.detachInterrupt
                0x0000000000002b66       0x24 /work/opensource/personal/microcontroller/arduino/ArduinoLibraries/ArduinoCore/Release/libArduinoCore.a(WInterrupts.o)
                0x0000000000002b66                detachInterrupt
 .text.__vector_1
                0x0000000000002b8a       0x4e /work/opensource/personal/microcontroller/arduino/ArduinoLibraries/ArduinoCore/Release/libArduinoCore.a(WInterrupts.o)
                0x0000000000002b8a                __vector_1
 .text.__vector_2
                0x0000000000002bd8       0x4e /work/opensource/personal/microcontroller/arduino/ArduinoLibraries/ArduinoCore/Release/libArduinoCore.a(WInterrupts.o)
                0x0000000000002bd8                __vector_2
 .text.__cxa_pure_virtual
                0x0000000000002c26        0x2 /work/opensource/personal/microcontroller/arduino/ArduinoLibraries/ArduinoCore/Release/libArduinoCore.a(abi.o)
                0x0000000000002c26                __cxa_pure_virtual
 .text._ZdlPv   0x0000000000002c28        0x2 /work/opensource/personal/microcontroller/arduino/ArduinoLibraries/ArduinoCore/Release/libArduinoCore.a(new.o)
                0x0000000000002c28                _ZdlPv
 .text.__vector_16
                0x0000000000002c2a       0x94 /work/opensource/personal/microcontroller/arduino/ArduinoLibraries/ArduinoCore/Release/libArduinoCore.a(wiring.o)
                0x0000000000002c2a                __vector_16
 .text.millis   0x0000000000002cbe       0x18 /work/opensource/personal/microcontroller/arduino/ArduinoLibraries/ArduinoCore/Release/libArduinoCore.a(wiring.o)
                0x0000000000002cbe                millis
 .text.micros   0x0000000000002cd6       0x46 /work/opensource/personal/microcontroller/arduino/ArduinoLibraries/ArduinoCore/Release/libArduinoCore.a(wiring.o)
                0x0000000000002cd6                micros
 .text.delay    0x0000000000002d1c       0x6e /work/opensource/personal/microcontroller/arduino/ArduinoLibraries/ArduinoCore/Release/libArduinoCore.a(wiring.o)
                0x0000000000002d1c                delay
 .text.delayMicroseconds
                0x0000000000002d8a       0x16 /work/opensource/personal/microcontroller/arduino/ArduinoLibraries/ArduinoCore/Release/libArduinoCore.a(wiring.o)
                0x0000000000002d8a                delayMicroseconds
 .text.init     0x0000000000002da0       0x76 /work/opensource/personal/microcontroller/arduino/ArduinoLibraries/ArduinoCore/Release/libArduinoCore.a(wiring.o)
                0x0000000000002da0                init
 .text.turnOffPWM
                0x0000000000002e16       0x52 /work/opensource/personal/microcontroller/arduino/ArduinoLibraries/ArduinoCore/Release/libArduinoCore.a(wiring_digital.o)
 .text.pinMode  0x0000000000002e68       0x72 /work/opensource/personal/microcontroller/arduino/ArduinoLibraries/ArduinoCore/Release/libArduinoCore.a(wiring_digital.o)
                0x0000000000002e68                pinMode
 .text.digitalWrite
                0x0000000000002eda       0x6a /work/opensource/personal/microcontroller/arduino/ArduinoLibraries/ArduinoCore/Release/libArduinoCore.a(wiring_digital.o)
                0x0000000000002eda                digitalWrite
 .text.twi_init
                0x0000000000002f44       0x38 /work/opensource/personal/microcontroller/arduino/ArduinoLibraries/ArduinoCore/Release/libArduinoCore.a(twi.o)
                0x0000000000002f44                twi_init
 .text.twi_readFrom
                0x0000000000002f7c       0x90 /work/opensource/personal/microcontroller/arduino/ArduinoLibraries/ArduinoCore/Release/libArduinoCore.a(twi.o)
                0x0000000000002f7c                twi_readFrom
 .text.twi_writeTo
                0x000000000000300c       0xae /work/opensource/personal/microcontroller/arduino/ArduinoLibraries/ArduinoCore/Release/libArduinoCore.a(twi.o)
                0x000000000000300c                twi_writeTo
 .text.twi_transmit
                0x00000000000030ba       0x32 /work/opensource/personal/microcontroller/arduino/ArduinoLibraries/ArduinoCore/Release/libArduinoCore.a(twi.o)
                0x00000000000030ba                twi_transmit
 .text.twi_stop
                0x00000000000030ec       0x14 /work/opensource/personal/microcontroller/arduino/ArduinoLibraries/ArduinoCore/Release/libArduinoCore.a(twi.o)
                0x00000000000030ec                twi_stop
 .text.twi_releaseBus
                0x0000000000003100        0xc /work/opensource/personal/microcontroller/arduino/ArduinoLibraries/ArduinoCore/Release/libArduinoCore.a(twi.o)
                0x0000000000003100                twi_releaseBus
 .text.__vector_24
                0x000000000000310c      0x254 /work/opensource/personal/microcontroller/arduino/ArduinoLibraries/ArduinoCore/Release/libArduinoCore.a(twi.o)
                0x000000000000310c                __vector_24
 .text.__empty  0x0000000000003360        0x2 /work/opensource/personal/microcontroller/arduino/ArduinoLibraries/ArduinoCore/Release/libArduinoCore.a(hooks.o)
                0x0000000000003360                yield
 .text.libgcc.div
                0x0000000000003362       0x28 /usr/lib/gcc/avr/4.8.1/avr5/libgcc.a(_udivmodhi4.o)
                0x0000000000003362                __udivmodhi4
 .text.libgcc.div
                0x000000000000338a       0x26 /usr/lib/gcc/avr/4.8.1/avr5/libgcc.a(_divmodhi4.o)
                0x000000000000338a                __divmodhi4
                0x000000000000338a                _div
 .text.libgcc.div
                0x00000000000033b0       0x44 /usr/lib/gcc/avr/4.8.1/avr5/libgcc.a(_udivmodsi4.o)
                0x00000000000033b0                __udivmodsi4
 .text.libgcc   0x00000000000033f4        0xc /usr/lib/gcc/avr/4.8.1/avr5/libgcc.a(_tablejump.o)
                0x00000000000033f4                __tablejump2__
                0x00000000000033f8                __tablejump__
 .text.avr-libc.fplib
                0x0000000000003400        0x4 /usr/lib/gcc/avr/4.8.1/../../../avr/lib/avr5/libm.a(divsf3.o)
                0x0000000000003400                __divsf3
 .text.avr-libc.fplib
                0x0000000000003404       0xcc /usr/lib/gcc/avr/4.8.1/../../../avr/lib/avr5/libm.a(divsf3x.o)
                0x000000000000341a                __divsf3x
                0x000000000000341e                __divsf3_pse
 .text.avr-libc.fplib
                0x00000000000034d0       0x7a /usr/lib/gcc/avr/4.8.1/../../../avr/lib/avr5/libm.a(floatsisf.o)
                0x00000000000034d0                __floatunsisf
                0x00000000000034d4                __floatsisf
 .text.avr-libc.fplib
                0x000000000000354a        0xc /usr/lib/gcc/avr/4.8.1/../../../avr/lib/avr5/libm.a(fp_inf.o)
                0x000000000000354a                __fp_inf
 .text.avr-libc.fplib
                0x0000000000003556        0x6 /usr/lib/gcc/avr/4.8.1/../../../avr/lib/avr5/libm.a(fp_nan.o)
                0x0000000000003556                __fp_nan
 .text.avr-libc.fplib
                0x000000000000355c        0xe /usr/lib/gcc/avr/4.8.1/../../../avr/lib/avr5/libm.a(fp_pscA.o)
                0x000000000000355c                __fp_pscA
 .text.avr-libc.fplib
                0x000000000000356a        0xe /usr/lib/gcc/avr/4.8.1/../../../avr/lib/avr5/libm.a(fp_pscB.o)
                0x000000000000356a                __fp_pscB
 .text.avr-libc.fplib
                0x0000000000003578       0x22 /usr/lib/gcc/avr/4.8.1/../../../avr/lib/avr5/libm.a(fp_round.o)
                0x0000000000003578                __fp_round
 .text.avr-libc.fplib
                0x000000000000359a       0x44 /usr/lib/gcc/avr/4.8.1/../../../avr/lib/avr5/libm.a(fp_split3.o)
                0x000000000000359a                __fp_split3
                0x00000000000035aa                __fp_splitA
 .text.avr-libc.fplib
                0x00000000000035de        0xe /usr/lib/gcc/avr/4.8.1/../../../avr/lib/avr5/libm.a(fp_zero.o)
                0x00000000000035de                __fp_zero
                0x00000000000035e0                __fp_szero
 .text.avr-libc
                0x00000000000035ec      0x24e /usr/lib/gcc/avr/4.8.1/../../../avr/lib/avr5/libc.a(malloc.o)
                0x00000000000035ec                malloc
                0x000000000000371c                free
 .text.avr-libc
                0x000000000000383a        0x8 /usr/lib/gcc/avr/4.8.1/../../../avr/lib/avr5/libc.a(abort.o)
                0x000000000000383a                abort
 .text.avr-libc
                0x0000000000003842       0x12 /usr/lib/gcc/avr/4.8.1/../../../avr/lib/avr5/libc.a(memcpy.o)
                0x0000000000003842                memcpy
                0x0000000000003854                . = ALIGN (0x2)
 *(.fini9)
 .fini9         0x0000000000003854        0x0 /usr/lib/gcc/avr/4.8.1/avr5/libgcc.a(_exit.o)
                0x0000000000003854                exit
                0x0000000000003854                _exit
 *(.fini9)
 *(.fini8)
 *(.fini8)
 *(.fini7)
 *(.fini7)
 *(.fini6)
 .fini6         0x0000000000003854       0x14 /usr/lib/gcc/avr/4.8.1/avr5/libgcc.a(_dtors.o)
                0x0000000000003854                __do_global_dtors
 *(.fini6)
 *(.fini5)
 *(.fini5)
 *(.fini4)
 *(.fini4)
 *(.fini3)
 *(.fini3)
 *(.fini2)
 *(.fini2)
 *(.fini1)
 *(.fini1)
 *(.fini0)
 .fini0         0x0000000000003868        0x4 /usr/lib/gcc/avr/4.8.1/avr5/libgcc.a(_exit.o)
 *(.fini0)
                0x000000000000386c                _etext = .

.data           0x0000000000800100      0x34a load address 0x000000000000386c
                0x0000000000800100                PROVIDE (__data_start, .)
 *(.data)
 .data          0x0000000000800100        0x0 /usr/lib/gcc/avr/4.8.1/../../../avr/lib/avr5/crtm328p.o
 .data          0x0000000000800100        0x0 ./Settings/Settings.o
 .data          0x0000000000800100        0x0 ./main.o
 .data          0x0000000000800100        0x0 /work/opensource/personal/microcontroller/arduino/ArduinoLibraries/ArduinoAccelerometerDriver/Release/libArduinoAccelerometerSensor.a(AccelerometerMMA8451.o)
 .data          0x0000000000800100        0x0 /work/opensource/personal/microcontroller/arduino/ArduinoLibraries/ArduinoMessagingProtocol/Release/libArduinoMessagingProtocol.a(RemoteDevice.o)
 .data          0x0000000000800100        0x0 /work/opensource/personal/microcontroller/arduino/ArduinoLibraries/ArduinoMessagingProtocol/Release/libArduinoMessagingProtocol.a(Notifier.o)
 .data          0x0000000000800100        0x0 /work/opensource/personal/microcontroller/arduino/ArduinoLibraries/ArduinoMessagingProtocol/Release/libArduinoMessagingProtocol.a(MessageParser.o)
 .data          0x0000000000800100        0x0 /work/opensource/personal/microcontroller/arduino/ArduinoLibraries/ArduinoMessagingProtocol/Release/libArduinoMessagingProtocol.a(Message.o)
 .data          0x0000000000800100        0x0 /work/opensource/personal/microcontroller/arduino/ArduinoLibraries/ArduinoIO/Release/libArduinoIO.a(SoftwareSerialOutputStream.o)
 .data          0x0000000000800100        0x0 /work/opensource/personal/microcontroller/arduino/ArduinoLibraries/ArduinoIO/Release/libArduinoIO.a(SoftwareSerialInputStream.o)
 .data          0x0000000000800100        0x0 /work/opensource/personal/microcontroller/arduino/ArduinoLibraries/ArduinoIO/Release/libArduinoIO.a(OutputStream.o)
 .data          0x0000000000800100        0x0 /work/opensource/personal/microcontroller/arduino/ArduinoLibraries/ArduinoIO/Release/libArduinoIO.a(InputStream.o)
 .data          0x0000000000800100        0x0 /work/opensource/personal/microcontroller/arduino/ArduinoLibraries/ArduinoIO/Release/libArduinoIO.a(ExternalEepromOutputStream.o)
 .data          0x0000000000800100        0x0 /work/opensource/personal/microcontroller/arduino/ArduinoLibraries/ArduinoIO/Release/libArduinoIO.a(ExternalEepromInputStream.o)
 .data          0x0000000000800100        0x0 /work/opensource/personal/microcontroller/arduino/ArduinoLibraries/ArduinoIO/Release/libArduinoIO.a(DataOutputStream.o)
 .data          0x0000000000800100        0x0 /work/opensource/personal/microcontroller/arduino/ArduinoLibraries/ArduinoIO/Release/libArduinoIO.a(DataInputStream.o)
 .data          0x0000000000800100        0x0 /work/opensource/personal/microcontroller/arduino/ArduinoLibraries/ArduinoIO/Release/libArduinoIO.a(ByteArrayOutputStream.o)
 .data          0x0000000000800100        0x0 /work/opensource/personal/microcontroller/arduino/ArduinoLibraries/ArduinoIO/Release/libArduinoIO.a(ByteArrayInputStream.o)
 .data          0x0000000000800100        0x0 /work/opensource/personal/microcontroller/arduino/ArduinoLibraries/ArduinoMemoryDriver/Release/libArduinoMemoryDriver.a(ExternalEeprom.o)
 .data          0x0000000000800100        0x0 /work/opensource/personal/microcontroller/arduino/ArduinoLibraries/ArduinoMemoryDriver/Release/libArduinoMemoryDriver.a(External24cl256Eeprom.o)
 .data          0x0000000000800100        0x0 /work/opensource/personal/microcontroller/arduino/ArduinoLibraries/ArduinoDevice/Release/libArduinoDevice.a(RegisterBasedWiredDevice.o)
 .data          0x0000000000800100        0x0 /work/opensource/personal/microcontroller/arduino/ArduinoLibraries/ArduinoDevice/Release/libArduinoDevice.a(EepromBasedWiredDevice.o)
 .data          0x0000000000800100        0x0 /work/opensource/personal/microcontroller/arduino/ArduinoLibraries/ArduinoDevice/Release/libArduinoDevice.a(WiredDevice.o)
 .data          0x0000000000800100        0x0 /work/opensource/personal/microcontroller/arduino/ArduinoLibraries/ArduinoCore/Release/libArduinoCore.a(Wire.o)
 .data          0x0000000000800100        0x0 /work/opensource/personal/microcontroller/arduino/ArduinoLibraries/ArduinoCore/Release/libArduinoCore.a(SoftwareSerial.o)
 .data          0x0000000000800100        0x0 /work/opensource/personal/microcontroller/arduino/ArduinoLibraries/ArduinoCore/Release/libArduinoCore.a(HardwareSerial.o)
 .data          0x0000000000800100        0x0 /work/opensource/personal/microcontroller/arduino/ArduinoLibraries/ArduinoCore/Release/libArduinoCore.a(HardwareSerial0.o)
 .data          0x0000000000800100        0x0 /work/opensource/personal/microcontroller/arduino/ArduinoLibraries/ArduinoCore/Release/libArduinoCore.a(Print.o)
 .data          0x0000000000800100        0x0 /work/opensource/personal/microcontroller/arduino/ArduinoLibraries/ArduinoCore/Release/libArduinoCore.a(Stream.o)
 .data          0x0000000000800100        0x0 /work/opensource/personal/microcontroller/arduino/ArduinoLibraries/ArduinoCore/Release/libArduinoCore.a(WInterrupts.o)
 .data          0x0000000000800100        0x0 /work/opensource/personal/microcontroller/arduino/ArduinoLibraries/ArduinoCore/Release/libArduinoCore.a(WString.o)
 .data          0x0000000000800100        0x0 /work/opensource/personal/microcontroller/arduino/ArduinoLibraries/ArduinoCore/Release/libArduinoCore.a(abi.o)
 .data          0x0000000000800100        0x0 /work/opensource/personal/microcontroller/arduino/ArduinoLibraries/ArduinoCore/Release/libArduinoCore.a(new.o)
 .data          0x0000000000800100        0x0 /work/opensource/personal/microcontroller/arduino/ArduinoLibraries/ArduinoCore/Release/libArduinoCore.a(wiring.o)
 .data          0x0000000000800100        0x0 /work/opensource/personal/microcontroller/arduino/ArduinoLibraries/ArduinoCore/Release/libArduinoCore.a(wiring_digital.o)
 .data          0x0000000000800100        0x0 /work/opensource/personal/microcontroller/arduino/ArduinoLibraries/ArduinoCore/Release/libArduinoCore.a(twi.o)
 .data          0x0000000000800100        0x0 /work/opensource/personal/microcontroller/arduino/ArduinoLibraries/ArduinoCore/Release/libArduinoCore.a(hooks.o)
 .data          0x0000000000800100        0x0 /usr/lib/gcc/avr/4.8.1/avr5/libgcc.a(_udivmodhi4.o)
 .data          0x0000000000800100        0x0 /usr/lib/gcc/avr/4.8.1/avr5/libgcc.a(_divmodhi4.o)
 .data          0x0000000000800100        0x0 /usr/lib/gcc/avr/4.8.1/avr5/libgcc.a(_udivmodsi4.o)
 .data          0x0000000000800100        0x0 /usr/lib/gcc/avr/4.8.1/avr5/libgcc.a(_exit.o)
 .data          0x0000000000800100        0x0 /usr/lib/gcc/avr/4.8.1/avr5/libgcc.a(_tablejump.o)
 .data          0x0000000000800100        0x0 /usr/lib/gcc/avr/4.8.1/avr5/libgcc.a(_copy_data.o)
 .data          0x0000000000800100        0x0 /usr/lib/gcc/avr/4.8.1/avr5/libgcc.a(_clear_bss.o)
 .data          0x0000000000800100        0x0 /usr/lib/gcc/avr/4.8.1/avr5/libgcc.a(_ctors.o)
 .data          0x0000000000800100        0x0 /usr/lib/gcc/avr/4.8.1/avr5/libgcc.a(_dtors.o)
 .data          0x0000000000800100        0x0 /usr/lib/gcc/avr/4.8.1/avr5/libgcc.a(_muluhisi3.o)
 .data          0x0000000000800100        0x0 /usr/lib/gcc/avr/4.8.1/avr5/libgcc.a(_umulhisi3.o)
 .data          0x0000000000800100        0x0 /usr/lib/gcc/avr/4.8.1/../../../avr/lib/avr5/libm.a(addsf3.o)
 .data          0x0000000000800100        0x0 /usr/lib/gcc/avr/4.8.1/../../../avr/lib/avr5/libm.a(addsf3x.o)
 .data          0x0000000000800100        0x0 /usr/lib/gcc/avr/4.8.1/../../../avr/lib/avr5/libm.a(cmpsf2.o)
 .data          0x0000000000800100        0x0 /usr/lib/gcc/avr/4.8.1/../../../avr/lib/avr5/libm.a(divsf3.o)
 .data          0x0000000000800100        0x0 /usr/lib/gcc/avr/4.8.1/../../../avr/lib/avr5/libm.a(divsf3x.o)
 .data          0x0000000000800100        0x0 /usr/lib/gcc/avr/4.8.1/../../../avr/lib/avr5/libm.a(fixsfsi.o)
 .data          0x0000000000800100        0x0 /usr/lib/gcc/avr/4.8.1/../../../avr/lib/avr5/libm.a(fixunssfsi.o)
 .data          0x0000000000800100        0x0 /usr/lib/gcc/avr/4.8.1/../../../avr/lib/avr5/libm.a(floatsisf.o)
 .data          0x0000000000800100        0x0 /usr/lib/gcc/avr/4.8.1/../../../avr/lib/avr5/libm.a(fp_cmp.o)
 .data          0x0000000000800100        0x0 /usr/lib/gcc/avr/4.8.1/../../../avr/lib/avr5/libm.a(fp_inf.o)
 .data          0x0000000000800100        0x0 /usr/lib/gcc/avr/4.8.1/../../../avr/lib/avr5/libm.a(fp_nan.o)
 .data          0x0000000000800100        0x0 /usr/lib/gcc/avr/4.8.1/../../../avr/lib/avr5/libm.a(fp_pscA.o)
 .data          0x0000000000800100        0x0 /usr/lib/gcc/avr/4.8.1/../../../avr/lib/avr5/libm.a(fp_pscB.o)
 .data          0x0000000000800100        0x0 /usr/lib/gcc/avr/4.8.1/../../../avr/lib/avr5/libm.a(fp_round.o)
 .data          0x0000000000800100        0x0 /usr/lib/gcc/avr/4.8.1/../../../avr/lib/avr5/libm.a(fp_split3.o)
 .data          0x0000000000800100        0x0 /usr/lib/gcc/avr/4.8.1/../../../avr/lib/avr5/libm.a(fp_zero.o)
 .data          0x0000000000800100        0x0 /usr/lib/gcc/avr/4.8.1/../../../avr/lib/avr5/libm.a(gesf2.o)
 .data          0x0000000000800100        0x0 /usr/lib/gcc/avr/4.8.1/../../../avr/lib/avr5/libm.a(mulsf3.o)
 .data          0x0000000000800100        0x0 /usr/lib/gcc/avr/4.8.1/../../../avr/lib/avr5/libm.a(mulsf3x.o)
 .data          0x0000000000800100        0x0 /usr/lib/gcc/avr/4.8.1/../../../avr/lib/avr5/libm.a(unordsf2.o)
 .data          0x0000000000800100        0x0 /usr/lib/gcc/avr/4.8.1/../../../avr/lib/avr5/libc.a(dtostrf.o)
 .data          0x0000000000800100        0x6 /usr/lib/gcc/avr/4.8.1/../../../avr/lib/avr5/libc.a(malloc.o)
                0x0000000000800100                __malloc_heap_end
                0x0000000000800102                __malloc_heap_start
                0x0000000000800104                __malloc_margin
 .data          0x0000000000800106        0x0 /usr/lib/gcc/avr/4.8.1/../../../avr/lib/avr5/libc.a(realloc.o)
 .data          0x0000000000800106        0x0 /usr/lib/gcc/avr/4.8.1/../../../avr/lib/avr5/libc.a(abort.o)
 .data          0x0000000000800106        0x0 /usr/lib/gcc/avr/4.8.1/../../../avr/lib/avr5/libc.a(atof.o)
 .data          0x0000000000800106        0x0 /usr/lib/gcc/avr/4.8.1/../../../avr/lib/avr5/libc.a(atol.o)
 .data          0x0000000000800106        0x0 /usr/lib/gcc/avr/4.8.1/../../../avr/lib/avr5/libc.a(isspace.o)
 .data          0x0000000000800106        0x0 /usr/lib/gcc/avr/4.8.1/../../../avr/lib/avr5/libc.a(tolower.o)
 .data          0x0000000000800106        0x0 /usr/lib/gcc/avr/4.8.1/../../../avr/lib/avr5/libc.a(toupper.o)
 .data          0x0000000000800106        0x0 /usr/lib/gcc/avr/4.8.1/../../../avr/lib/avr5/libc.a(strcpy_P.o)
 .data          0x0000000000800106        0x0 /usr/lib/gcc/avr/4.8.1/../../../avr/lib/avr5/libc.a(strlen_P.o)
 .data          0x0000000000800106        0x0 /usr/lib/gcc/avr/4.8.1/../../../avr/lib/avr5/libc.a(memcpy.o)
 .data          0x0000000000800106        0x0 /usr/lib/gcc/avr/4.8.1/../../../avr/lib/avr5/libc.a(memmove.o)
 .data          0x0000000000800106        0x0 /usr/lib/gcc/avr/4.8.1/../../../avr/lib/avr5/libc.a(strchr.o)
 .data          0x0000000000800106        0x0 /usr/lib/gcc/avr/4.8.1/../../../avr/lib/avr5/libc.a(strcmp.o)
 .data          0x0000000000800106        0x0 /usr/lib/gcc/avr/4.8.1/../../../avr/lib/avr5/libc.a(strcpy.o)
 .data          0x0000000000800106        0x0 /usr/lib/gcc/avr/4.8.1/../../../avr/lib/avr5/libc.a(strncmp.o)
 .data          0x0000000000800106        0x0 /usr/lib/gcc/avr/4.8.1/../../../avr/lib/avr5/libc.a(strncpy.o)
 .data          0x0000000000800106        0x0 /usr/lib/gcc/avr/4.8.1/../../../avr/lib/avr5/libc.a(strrchr.o)
 .data          0x0000000000800106        0x0 /usr/lib/gcc/avr/4.8.1/../../../avr/lib/avr5/libc.a(strstr.o)
 .data          0x0000000000800106        0x0 /usr/lib/gcc/avr/4.8.1/../../../avr/lib/avr5/libc.a(itoa.o)
 .data          0x0000000000800106        0x0 /usr/lib/gcc/avr/4.8.1/../../../avr/lib/avr5/libc.a(itoa_ncheck.o)
 .data          0x0000000000800106        0x0 /usr/lib/gcc/avr/4.8.1/../../../avr/lib/avr5/libc.a(ltoa.o)
 .data          0x0000000000800106        0x0 /usr/lib/gcc/avr/4.8.1/../../../avr/lib/avr5/libc.a(ltoa_ncheck.o)
 .data          0x0000000000800106        0x0 /usr/lib/gcc/avr/4.8.1/../../../avr/lib/avr5/libc.a(mulsi10.o)
 .data          0x0000000000800106        0x0 /usr/lib/gcc/avr/4.8.1/../../../avr/lib/avr5/libc.a(ultoa.o)
 .data          0x0000000000800106        0x0 /usr/lib/gcc/avr/4.8.1/../../../avr/lib/avr5/libc.a(ultoa_ncheck.o)
 .data          0x0000000000800106        0x0 /usr/lib/gcc/avr/4.8.1/../../../avr/lib/avr5/libc.a(utoa.o)
 .data          0x0000000000800106        0x0 /usr/lib/gcc/avr/4.8.1/../../../avr/lib/avr5/libc.a(utoa_ncheck.o)
 .data          0x0000000000800106        0x0 /usr/lib/gcc/avr/4.8.1/../../../avr/lib/avr5/libc.a(dtoa_prf.o)
 .data          0x0000000000800106        0x0 /usr/lib/gcc/avr/4.8.1/../../../avr/lib/avr5/libc.a(strtod.o)
 .data          0x0000000000800106        0x0 /usr/lib/gcc/avr/4.8.1/../../../avr/lib/avr5/libc.a(ftoa_engine.o)
 .data          0x0000000000800106        0x0 /usr/lib/gcc/avr/4.8.1/../../../avr/lib/avr5/libc.a(cty_isfalse.o)
 .data          0x0000000000800106        0x0 /usr/lib/gcc/avr/4.8.1/../../../avr/lib/avr5/libc.a(strncasecmp_P.o)
 .data          0x0000000000800106        0x0 /usr/lib/gcc/avr/4.8.1/../../../avr/lib/avr5/libc.a(strrev.o)
 .data          0x0000000000800106        0x0 /usr/lib/gcc/avr/4.8.1/../../../avr/lib/avr5/libc.a(errno.o)
 .data          0x0000000000800106        0x0 /usr/lib/gcc/avr/4.8.1/avr5/libgcc.a(_prologue.o)
 .data          0x0000000000800106        0x0 /usr/lib/gcc/avr/4.8.1/avr5/libgcc.a(_epilogue.o)
 *(.data*)
 .data.intFunc  0x0000000000800106        0x4 /work/opensource/personal/microcontroller/arduino/ArduinoLibraries/ArduinoCore/Release/libArduinoCore.a(WInterrupts.o)
 *(.rodata)
 .rodata        0x000000000080010a       0x18 /work/opensource/personal/microcontroller/arduino/ArduinoLibraries/ArduinoAccelerometerDriver/Release/libArduinoAccelerometerSensor.a(AccelerometerMMA8451.o)
 *(.rodata*)
 .rodata.str1.1
                0x0000000000800122       0x1d ./main.o
 .rodata._ZTV21External24cl256Eeprom
                0x000000000080013f       0x16 ./main.o
                0x000000000080013f                _ZTV21External24cl256Eeprom
 .rodata._ZTV13Accelerometer
                0x0000000000800155        0xa /work/opensource/personal/microcontroller/arduino/ArduinoLibraries/ArduinoAccelerometerDriver/Release/libArduinoAccelerometerSensor.a(AccelerometerMMA8451.o)
                0x0000000000800155                _ZTV13Accelerometer
 .rodata._ZTV20AccelerometerMMA8451
                0x000000000080015f        0xa /work/opensource/personal/microcontroller/arduino/ArduinoLibraries/ArduinoAccelerometerDriver/Release/libArduinoAccelerometerSensor.a(AccelerometerMMA8451.o)
                0x000000000080015f                _ZTV20AccelerometerMMA8451
 .rodata._ZTV12RemoteDevice
                0x0000000000800169        0x8 /work/opensource/personal/microcontroller/arduino/ArduinoLibraries/ArduinoMessagingProtocol/Release/libArduinoMessagingProtocol.a(RemoteDevice.o)
                0x0000000000800169                _ZTV12RemoteDevice
 .rodata._ZTV26SoftwareSerialOutputStream
                0x0000000000800171       0x14 /work/opensource/personal/microcontroller/arduino/ArduinoLibraries/ArduinoIO/Release/libArduinoIO.a(SoftwareSerialOutputStream.o)
                0x0000000000800171                _ZTV26SoftwareSerialOutputStream
 .rodata._ZTV25SoftwareSerialInputStream
                0x0000000000800185       0x16 /work/opensource/personal/microcontroller/arduino/ArduinoLibraries/ArduinoIO/Release/libArduinoIO.a(SoftwareSerialInputStream.o)
                0x0000000000800185                _ZTV25SoftwareSerialInputStream
 .rodata._ZTV12OutputStream
                0x000000000080019b       0x14 /work/opensource/personal/microcontroller/arduino/ArduinoLibraries/ArduinoIO/Release/libArduinoIO.a(OutputStream.o)
                0x000000000080019b                _ZTV12OutputStream
 .rodata._ZTV8Seekable
                0x00000000008001af        0x6 /work/opensource/personal/microcontroller/arduino/ArduinoLibraries/ArduinoIO/Release/libArduinoIO.a(ExternalEepromOutputStream.o)
                0x00000000008001af                _ZTV8Seekable
 .rodata._ZTC26ExternalEepromOutputStream0_20SeekableOutputStream
                0x00000000008001b5       0x30 /work/opensource/personal/microcontroller/arduino/ArduinoLibraries/ArduinoIO/Release/libArduinoIO.a(ExternalEepromOutputStream.o)
                0x00000000008001b5                _ZTC26ExternalEepromOutputStream0_20SeekableOutputStream
 .rodata._ZTT26ExternalEepromOutputStream
                0x00000000008001e5        0xc /work/opensource/personal/microcontroller/arduino/ArduinoLibraries/ArduinoIO/Release/libArduinoIO.a(ExternalEepromOutputStream.o)
                0x00000000008001e5                _ZTT26ExternalEepromOutputStream
 .rodata._ZTV26ExternalEepromOutputStream
                0x00000000008001f1       0x3a /work/opensource/personal/microcontroller/arduino/ArduinoLibraries/ArduinoIO/Release/libArduinoIO.a(ExternalEepromOutputStream.o)
                0x00000000008001f1                _ZTV26ExternalEepromOutputStream
 .rodata._ZTC25ExternalEepromInputStream0_19SeekableInputStream
                0x000000000080022b       0x34 /work/opensource/personal/microcontroller/arduino/ArduinoLibraries/ArduinoIO/Release/libArduinoIO.a(ExternalEepromInputStream.o)
                0x000000000080022b                _ZTC25ExternalEepromInputStream0_19SeekableInputStream
 .rodata._ZTT25ExternalEepromInputStream
                0x000000000080025f        0xe /work/opensource/personal/microcontroller/arduino/ArduinoLibraries/ArduinoIO/Release/libArduinoIO.a(ExternalEepromInputStream.o)
                0x000000000080025f                _ZTT25ExternalEepromInputStream
 .rodata._ZTV25ExternalEepromInputStream
                0x000000000080026d       0x42 /work/opensource/personal/microcontroller/arduino/ArduinoLibraries/ArduinoIO/Release/libArduinoIO.a(ExternalEepromInputStream.o)
                0x000000000080026d                _ZTV25ExternalEepromInputStream
 .rodata._ZTV16DataOutputStream
                0x00000000008002af       0x20 /work/opensource/personal/microcontroller/arduino/ArduinoLibraries/ArduinoIO/Release/libArduinoIO.a(DataOutputStream.o)
                0x00000000008002af                _ZTV16DataOutputStream
 .rodata._ZTV15DataInputStream
                0x00000000008002cf       0x1e /work/opensource/personal/microcontroller/arduino/ArduinoLibraries/ArduinoIO/Release/libArduinoIO.a(DataInputStream.o)
                0x00000000008002cf                _ZTV15DataInputStream
 .rodata._ZTC21ByteArrayOutputStream0_20SeekableOutputStream
                0x00000000008002ed       0x30 /work/opensource/personal/microcontroller/arduino/ArduinoLibraries/ArduinoIO/Release/libArduinoIO.a(ByteArrayOutputStream.o)
                0x00000000008002ed                _ZTC21ByteArrayOutputStream0_20SeekableOutputStream
 .rodata._ZTT21ByteArrayOutputStream
                0x000000000080031d        0xc /work/opensource/personal/microcontroller/arduino/ArduinoLibraries/ArduinoIO/Release/libArduinoIO.a(ByteArrayOutputStream.o)
                0x000000000080031d                _ZTT21ByteArrayOutputStream
 .rodata._ZTV21ByteArrayOutputStream
                0x0000000000800329       0x3c /work/opensource/personal/microcontroller/arduino/ArduinoLibraries/ArduinoIO/Release/libArduinoIO.a(ByteArrayOutputStream.o)
                0x0000000000800329                _ZTV21ByteArrayOutputStream
 .rodata._ZTC20ByteArrayInputStream0_19SeekableInputStream
                0x0000000000800365       0x34 /work/opensource/personal/microcontroller/arduino/ArduinoLibraries/ArduinoIO/Release/libArduinoIO.a(ByteArrayInputStream.o)
                0x0000000000800365                _ZTC20ByteArrayInputStream0_19SeekableInputStream
 .rodata._ZTT20ByteArrayInputStream
                0x0000000000800399        0xe /work/opensource/personal/microcontroller/arduino/ArduinoLibraries/ArduinoIO/Release/libArduinoIO.a(ByteArrayInputStream.o)
                0x0000000000800399                _ZTT20ByteArrayInputStream
 .rodata._ZTV20ByteArrayInputStream
                0x00000000008003a7       0x40 /work/opensource/personal/microcontroller/arduino/ArduinoLibraries/ArduinoIO/Release/libArduinoIO.a(ByteArrayInputStream.o)
                0x00000000008003a7                _ZTV20ByteArrayInputStream
 .rodata._ZTV14ExternalEeprom
                0x00000000008003e7       0x16 /work/opensource/personal/microcontroller/arduino/ArduinoLibraries/ArduinoMemoryDriver/Release/libArduinoMemoryDriver.a(ExternalEeprom.o)
                0x00000000008003e7                _ZTV14ExternalEeprom
 .rodata._ZTV22EepromBasedWiredDevice
                0x00000000008003fd        0xc /work/opensource/personal/microcontroller/arduino/ArduinoLibraries/ArduinoDevice/Release/libArduinoDevice.a(EepromBasedWiredDevice.o)
                0x00000000008003fd                _ZTV22EepromBasedWiredDevice
 .rodata._ZTV7TwoWire
                0x0000000000800409       0x10 /work/opensource/personal/microcontroller/arduino/ArduinoLibraries/ArduinoCore/Release/libArduinoCore.a(Wire.o)
                0x0000000000800409                _ZTV7TwoWire
 .rodata._ZTV14SoftwareSerial
                0x0000000000800419       0x10 /work/opensource/personal/microcontroller/arduino/ArduinoLibraries/ArduinoCore/Release/libArduinoCore.a(SoftwareSerial.o)
                0x0000000000800419                _ZTV14SoftwareSerial
 .rodata._ZTV14HardwareSerial
                0x0000000000800429       0x10 /work/opensource/personal/microcontroller/arduino/ArduinoLibraries/ArduinoCore/Release/libArduinoCore.a(HardwareSerial.o)
                0x0000000000800429                _ZTV14HardwareSerial
 .rodata.str1.1
                0x0000000000800439       0x11 /work/opensource/personal/microcontroller/arduino/ArduinoLibraries/ArduinoCore/Release/libArduinoCore.a(Print.o)
 *(.gnu.linkonce.d*)
                0x000000000080044a                . = ALIGN (0x2)
                0x000000000080044a                _edata = .
                0x000000000080044a                PROVIDE (__data_end, .)

.bss            0x000000000080044a      0x2c4
                0x000000000080044a                PROVIDE (__bss_start, .)
 *(.bss)
 *(.bss*)
 .bss.settings  0x000000000080044a        0xa ./main.o
                0x000000000080044a                settings
 .bss.device    0x0000000000800454        0xa ./main.o
                0x0000000000800454                device
 .bss.parser    0x000000000080045e        0x8 ./main.o
                0x000000000080045e                parser
 .bss.message   0x0000000000800466        0x5 ./main.o
                0x0000000000800466                message
 .bss.payloadDataInput
                0x000000000080046b        0x4 ./main.o
                0x000000000080046b                payloadDataInput
 .bss.payloadDataOutput
                0x000000000080046f        0x4 ./main.o
                0x000000000080046f                payloadDataOutput
 .bss.eepromDataInput
                0x0000000000800473        0x4 ./main.o
                0x0000000000800473                eepromDataInput
 .bss.eepromDataOutput
                0x0000000000800477        0x4 ./main.o
                0x0000000000800477                eepromDataOutput
 .bss.payloadInputStream
                0x000000000080047b        0xc ./main.o
                0x000000000080047b                payloadInputStream
 .bss.payloadOutputStream
                0x0000000000800487        0xc ./main.o
                0x0000000000800487                payloadOutputStream
 .bss.eepromInputStream
                0x0000000000800493        0xe ./main.o
                0x0000000000800493                eepromInputStream
 .bss.eepromOutputStream
                0x00000000008004a1        0xc ./main.o
                0x00000000008004a1                eepromOutputStream
 .bss.softwareSerialOutputStream
                0x00000000008004ad        0x4 ./main.o
                0x00000000008004ad                softwareSerialOutputStream
 .bss.softwareSerialInputStream
                0x00000000008004b1        0x4 ./main.o
                0x00000000008004b1                softwareSerialInputStream
 .bss.serial    0x00000000008004b5       0x1f ./main.o
                0x00000000008004b5                serial
 .bss.eeprom    0x00000000008004d4        0x9 ./main.o
                0x00000000008004d4                eeprom
 .bss.acc       0x00000000008004dd        0x6 ./main.o
                0x00000000008004dd                acc
 .bss.parserBuffer
                0x00000000008004e3       0x40 ./main.o
                0x00000000008004e3                parserBuffer
 .bss.payloadBuffer
                0x0000000000800523       0x3b ./main.o
                0x0000000000800523                payloadBuffer
 .bss.triggered
                0x000000000080055e        0x1 ./main.o
                0x000000000080055e                triggered
 .bss._ZN7Message6nextIdE
                0x000000000080055f        0x1 /work/opensource/personal/microcontroller/arduino/ArduinoLibraries/ArduinoMessagingProtocol/Release/libArduinoMessagingProtocol.a(Message.o)
                0x000000000080055f                _ZN7Message6nextIdE
 .bss.Wire      0x0000000000800560        0xc /work/opensource/personal/microcontroller/arduino/ArduinoLibraries/ArduinoCore/Release/libArduinoCore.a(Wire.o)
                0x0000000000800560                Wire
 .bss._ZN7TwoWire12transmittingE
                0x000000000080056c        0x1 /work/opensource/personal/microcontroller/arduino/ArduinoLibraries/ArduinoCore/Release/libArduinoCore.a(Wire.o)
                0x000000000080056c                _ZN7TwoWire12transmittingE
 .bss._ZN7TwoWire14txBufferLengthE
                0x000000000080056d        0x1 /work/opensource/personal/microcontroller/arduino/ArduinoLibraries/ArduinoCore/Release/libArduinoCore.a(Wire.o)
                0x000000000080056d                _ZN7TwoWire14txBufferLengthE
 .bss._ZN7TwoWire13txBufferIndexE
                0x000000000080056e        0x1 /work/opensource/personal/microcontroller/arduino/ArduinoLibraries/ArduinoCore/Release/libArduinoCore.a(Wire.o)
                0x000000000080056e                _ZN7TwoWire13txBufferIndexE
 .bss._ZN7TwoWire8txBufferE
                0x000000000080056f       0x20 /work/opensource/personal/microcontroller/arduino/ArduinoLibraries/ArduinoCore/Release/libArduinoCore.a(Wire.o)
                0x000000000080056f                _ZN7TwoWire8txBufferE
 .bss._ZN7TwoWire9txAddressE
                0x000000000080058f        0x1 /work/opensource/personal/microcontroller/arduino/ArduinoLibraries/ArduinoCore/Release/libArduinoCore.a(Wire.o)
                0x000000000080058f                _ZN7TwoWire9txAddressE
 .bss._ZN7TwoWire14rxBufferLengthE
                0x0000000000800590        0x1 /work/opensource/personal/microcontroller/arduino/ArduinoLibraries/ArduinoCore/Release/libArduinoCore.a(Wire.o)
                0x0000000000800590                _ZN7TwoWire14rxBufferLengthE
 .bss._ZN7TwoWire13rxBufferIndexE
                0x0000000000800591        0x1 /work/opensource/personal/microcontroller/arduino/ArduinoLibraries/ArduinoCore/Release/libArduinoCore.a(Wire.o)
                0x0000000000800591                _ZN7TwoWire13rxBufferIndexE
 .bss._ZN7TwoWire8rxBufferE
                0x0000000000800592       0x20 /work/opensource/personal/microcontroller/arduino/ArduinoLibraries/ArduinoCore/Release/libArduinoCore.a(Wire.o)
                0x0000000000800592                _ZN7TwoWire8rxBufferE
 .bss._ZN14SoftwareSerial20_receive_buffer_headE
                0x00000000008005b2        0x1 /work/opensource/personal/microcontroller/arduino/ArduinoLibraries/ArduinoCore/Release/libArduinoCore.a(SoftwareSerial.o)
                0x00000000008005b2                _ZN14SoftwareSerial20_receive_buffer_headE
 .bss._ZN14SoftwareSerial20_receive_buffer_tailE
                0x00000000008005b3        0x1 /work/opensource/personal/microcontroller/arduino/ArduinoLibraries/ArduinoCore/Release/libArduinoCore.a(SoftwareSerial.o)
                0x00000000008005b3                _ZN14SoftwareSerial20_receive_buffer_tailE
 .bss._ZN14SoftwareSerial15_receive_bufferE
                0x00000000008005b4       0x40 /work/opensource/personal/microcontroller/arduino/ArduinoLibraries/ArduinoCore/Release/libArduinoCore.a(SoftwareSerial.o)
                0x00000000008005b4                _ZN14SoftwareSerial15_receive_bufferE
 .bss._ZN14SoftwareSerial13active_objectE
                0x00000000008005f4        0x2 /work/opensource/personal/microcontroller/arduino/ArduinoLibraries/ArduinoCore/Release/libArduinoCore.a(SoftwareSerial.o)
                0x00000000008005f4                _ZN14SoftwareSerial13active_objectE
 .bss.Serial    0x00000000008005f6       0x9d /work/opensource/personal/microcontroller/arduino/ArduinoLibraries/ArduinoCore/Release/libArduinoCore.a(HardwareSerial0.o)
                0x00000000008005f6                Serial
 .bss.timer0_fract
                0x0000000000800693        0x1 /work/opensource/personal/microcontroller/arduino/ArduinoLibraries/ArduinoCore/Release/libArduinoCore.a(wiring.o)
 .bss.timer0_millis
                0x0000000000800694        0x4 /work/opensource/personal/microcontroller/arduino/ArduinoLibraries/ArduinoCore/Release/libArduinoCore.a(wiring.o)
                0x0000000000800694                timer0_millis
 .bss.timer0_overflow_count
                0x0000000000800698        0x4 /work/opensource/personal/microcontroller/arduino/ArduinoLibraries/ArduinoCore/Release/libArduinoCore.a(wiring.o)
                0x0000000000800698                timer0_overflow_count
 .bss.twi_error
                0x000000000080069c        0x1 /work/opensource/personal/microcontroller/arduino/ArduinoLibraries/ArduinoCore/Release/libArduinoCore.a(twi.o)
 .bss.twi_rxBufferIndex
                0x000000000080069d        0x1 /work/opensource/personal/microcontroller/arduino/ArduinoLibraries/ArduinoCore/Release/libArduinoCore.a(twi.o)
 .bss.twi_rxBuffer
                0x000000000080069e       0x20 /work/opensource/personal/microcontroller/arduino/ArduinoLibraries/ArduinoCore/Release/libArduinoCore.a(twi.o)
 .bss.twi_txBufferLength
                0x00000000008006be        0x1 /work/opensource/personal/microcontroller/arduino/ArduinoLibraries/ArduinoCore/Release/libArduinoCore.a(twi.o)
 .bss.twi_txBufferIndex
                0x00000000008006bf        0x1 /work/opensource/personal/microcontroller/arduino/ArduinoLibraries/ArduinoCore/Release/libArduinoCore.a(twi.o)
 .bss.twi_txBuffer
                0x00000000008006c0       0x20 /work/opensource/personal/microcontroller/arduino/ArduinoLibraries/ArduinoCore/Release/libArduinoCore.a(twi.o)
 .bss.twi_masterBufferLength
                0x00000000008006e0        0x1 /work/opensource/personal/microcontroller/arduino/ArduinoLibraries/ArduinoCore/Release/libArduinoCore.a(twi.o)
 .bss.twi_masterBufferIndex
                0x00000000008006e1        0x1 /work/opensource/personal/microcontroller/arduino/ArduinoLibraries/ArduinoCore/Release/libArduinoCore.a(twi.o)
 .bss.twi_masterBuffer
                0x00000000008006e2       0x20 /work/opensource/personal/microcontroller/arduino/ArduinoLibraries/ArduinoCore/Release/libArduinoCore.a(twi.o)
 .bss.twi_onSlaveReceive
                0x0000000000800702        0x2 /work/opensource/personal/microcontroller/arduino/ArduinoLibraries/ArduinoCore/Release/libArduinoCore.a(twi.o)
 .bss.twi_onSlaveTransmit
                0x0000000000800704        0x2 /work/opensource/personal/microcontroller/arduino/ArduinoLibraries/ArduinoCore/Release/libArduinoCore.a(twi.o)
 .bss.twi_inRepStart
                0x0000000000800706        0x1 /work/opensource/personal/microcontroller/arduino/ArduinoLibraries/ArduinoCore/Release/libArduinoCore.a(twi.o)
 .bss.twi_sendStop
                0x0000000000800707        0x1 /work/opensource/personal/microcontroller/arduino/ArduinoLibraries/ArduinoCore/Release/libArduinoCore.a(twi.o)
 .bss.twi_slarw
                0x0000000000800708        0x1 /work/opensource/personal/microcontroller/arduino/ArduinoLibraries/ArduinoCore/Release/libArduinoCore.a(twi.o)
 .bss.twi_state
                0x0000000000800709        0x1 /work/opensource/personal/microcontroller/arduino/ArduinoLibraries/ArduinoCore/Release/libArduinoCore.a(twi.o)
 *(COMMON)
 COMMON         0x000000000080070a        0x4 /usr/lib/gcc/avr/4.8.1/../../../avr/lib/avr5/libc.a(malloc.o)
                0x000000000080070a                __brkval
                0x000000000080070c                __flp
                0x000000000080070e                PROVIDE (__bss_end, .)
                0x000000000000386c                __data_load_start = LOADADDR (.data)
                0x0000000000003bb6                __data_load_end = (__data_load_start + SIZEOF (.data))

.noinit         0x000000000080070e        0x0
                0x000000000080070e                PROVIDE (__noinit_start, .)
 *(.noinit*)
                0x000000000080070e                PROVIDE (__noinit_end, .)
                0x000000000080070e                _end = .
                0x000000000080070e                PROVIDE (__heap_start, .)

.eeprom         0x0000000000810000        0x0
 *(.eeprom*)
                0x0000000000810000                __eeprom_end = .

.fuse
 *(.fuse)
 *(.lfuse)
 *(.hfuse)
 *(.efuse)

.lock
 *(.lock*)

.signature
 *(.signature*)

.user_signatures
 *(.user_signatures*)

.stab
 *(.stab)

.stabstr
 *(.stabstr)

.stab.excl
 *(.stab.excl)

.stab.exclstr
 *(.stab.exclstr)

.stab.index
 *(.stab.index)

.stab.indexstr
 *(.stab.indexstr)

.comment        0x0000000000000000       0x11
 *(.comment)
 .comment       0x0000000000000000       0x11 ./Settings/Settings.o
                                         0x12 (size before relaxing)
 .comment       0x0000000000000000       0x12 ./main.o
 .comment       0x0000000000000000       0x12 /work/opensource/personal/microcontroller/arduino/ArduinoLibraries/ArduinoAccelerometerDriver/Release/libArduinoAccelerometerSensor.a(AccelerometerMMA8451.o)
 .comment       0x0000000000000000       0x12 /work/opensource/personal/microcontroller/arduino/ArduinoLibraries/ArduinoMessagingProtocol/Release/libArduinoMessagingProtocol.a(RemoteDevice.o)
 .comment       0x0000000000000000       0x12 /work/opensource/personal/microcontroller/arduino/ArduinoLibraries/ArduinoMessagingProtocol/Release/libArduinoMessagingProtocol.a(Notifier.o)
 .comment       0x0000000000000000       0x12 /work/opensource/personal/microcontroller/arduino/ArduinoLibraries/ArduinoMessagingProtocol/Release/libArduinoMessagingProtocol.a(MessageParser.o)
 .comment       0x0000000000000000       0x12 /work/opensource/personal/microcontroller/arduino/ArduinoLibraries/ArduinoMessagingProtocol/Release/libArduinoMessagingProtocol.a(Message.o)
 .comment       0x0000000000000000       0x12 /work/opensource/personal/microcontroller/arduino/ArduinoLibraries/ArduinoIO/Release/libArduinoIO.a(SoftwareSerialOutputStream.o)
 .comment       0x0000000000000000       0x12 /work/opensource/personal/microcontroller/arduino/ArduinoLibraries/ArduinoIO/Release/libArduinoIO.a(SoftwareSerialInputStream.o)
 .comment       0x0000000000000000       0x12 /work/opensource/personal/microcontroller/arduino/ArduinoLibraries/ArduinoIO/Release/libArduinoIO.a(OutputStream.o)
 .comment       0x0000000000000000       0x12 /work/opensource/personal/microcontroller/arduino/ArduinoLibraries/ArduinoIO/Release/libArduinoIO.a(InputStream.o)
 .comment       0x0000000000000000       0x12 /work/opensource/personal/microcontroller/arduino/ArduinoLibraries/ArduinoIO/Release/libArduinoIO.a(ExternalEepromOutputStream.o)
 .comment       0x0000000000000000       0x12 /work/opensource/personal/microcontroller/arduino/ArduinoLibraries/ArduinoIO/Release/libArduinoIO.a(ExternalEepromInputStream.o)
 .comment       0x0000000000000000       0x12 /work/opensource/personal/microcontroller/arduino/ArduinoLibraries/ArduinoIO/Release/libArduinoIO.a(DataOutputStream.o)
 .comment       0x0000000000000000       0x12 /work/opensource/personal/microcontroller/arduino/ArduinoLibraries/ArduinoIO/Release/libArduinoIO.a(DataInputStream.o)
 .comment       0x0000000000000000       0x12 /work/opensource/personal/microcontroller/arduino/ArduinoLibraries/ArduinoIO/Release/libArduinoIO.a(ByteArrayOutputStream.o)
 .comment       0x0000000000000000       0x12 /work/opensource/personal/microcontroller/arduino/ArduinoLibraries/ArduinoIO/Release/libArduinoIO.a(ByteArrayInputStream.o)
 .comment       0x0000000000000000       0x12 /work/opensource/personal/microcontroller/arduino/ArduinoLibraries/ArduinoMemoryDriver/Release/libArduinoMemoryDriver.a(ExternalEeprom.o)
 .comment       0x0000000000000000       0x12 /work/opensource/personal/microcontroller/arduino/ArduinoLibraries/ArduinoMemoryDriver/Release/libArduinoMemoryDriver.a(External24cl256Eeprom.o)
 .comment       0x0000000000000000       0x12 /work/opensource/personal/microcontroller/arduino/ArduinoLibraries/ArduinoDevice/Release/libArduinoDevice.a(RegisterBasedWiredDevice.o)
 .comment       0x0000000000000000       0x12 /work/opensource/personal/microcontroller/arduino/ArduinoLibraries/ArduinoDevice/Release/libArduinoDevice.a(EepromBasedWiredDevice.o)
 .comment       0x0000000000000000       0x12 /work/opensource/personal/microcontroller/arduino/ArduinoLibraries/ArduinoDevice/Release/libArduinoDevice.a(WiredDevice.o)
 .comment       0x0000000000000000       0x12 /work/opensource/personal/microcontroller/arduino/ArduinoLibraries/ArduinoCore/Release/libArduinoCore.a(Wire.o)
 .comment       0x0000000000000000       0x12 /work/opensource/personal/microcontroller/arduino/ArduinoLibraries/ArduinoCore/Release/libArduinoCore.a(SoftwareSerial.o)
 .comment       0x0000000000000000       0x12 /work/opensource/personal/microcontroller/arduino/ArduinoLibraries/ArduinoCore/Release/libArduinoCore.a(HardwareSerial.o)
 .comment       0x0000000000000000       0x12 /work/opensource/personal/microcontroller/arduino/ArduinoLibraries/ArduinoCore/Release/libArduinoCore.a(HardwareSerial0.o)
 .comment       0x0000000000000000       0x12 /work/opensource/personal/microcontroller/arduino/ArduinoLibraries/ArduinoCore/Release/libArduinoCore.a(Print.o)
 .comment       0x0000000000000000       0x12 /work/opensource/personal/microcontroller/arduino/ArduinoLibraries/ArduinoCore/Release/libArduinoCore.a(Stream.o)
 .comment       0x0000000000000000       0x12 /work/opensource/personal/microcontroller/arduino/ArduinoLibraries/ArduinoCore/Release/libArduinoCore.a(WInterrupts.o)
 .comment       0x0000000000000000       0x12 /work/opensource/personal/microcontroller/arduino/ArduinoLibraries/ArduinoCore/Release/libArduinoCore.a(WString.o)
 .comment       0x0000000000000000       0x12 /work/opensource/personal/microcontroller/arduino/ArduinoLibraries/ArduinoCore/Release/libArduinoCore.a(abi.o)
 .comment       0x0000000000000000       0x12 /work/opensource/personal/microcontroller/arduino/ArduinoLibraries/ArduinoCore/Release/libArduinoCore.a(new.o)
 .comment       0x0000000000000000       0x12 /work/opensource/personal/microcontroller/arduino/ArduinoLibraries/ArduinoCore/Release/libArduinoCore.a(wiring.o)
 .comment       0x0000000000000000       0x12 /work/opensource/personal/microcontroller/arduino/ArduinoLibraries/ArduinoCore/Release/libArduinoCore.a(wiring_digital.o)
 .comment       0x0000000000000000       0x12 /work/opensource/personal/microcontroller/arduino/ArduinoLibraries/ArduinoCore/Release/libArduinoCore.a(twi.o)
 .comment       0x0000000000000000       0x12 /work/opensource/personal/microcontroller/arduino/ArduinoLibraries/ArduinoCore/Release/libArduinoCore.a(hooks.o)
 .comment       0x0000000000000000       0x12 /usr/lib/gcc/avr/4.8.1/../../../avr/lib/avr5/libc.a(dtostrf.o)
 .comment       0x0000000000000000       0x12 /usr/lib/gcc/avr/4.8.1/../../../avr/lib/avr5/libc.a(malloc.o)
 .comment       0x0000000000000000       0x12 /usr/lib/gcc/avr/4.8.1/../../../avr/lib/avr5/libc.a(realloc.o)
 .comment       0x0000000000000000       0x12 /usr/lib/gcc/avr/4.8.1/../../../avr/lib/avr5/libc.a(dtoa_prf.o)
 .comment       0x0000000000000000       0x12 /usr/lib/gcc/avr/4.8.1/../../../avr/lib/avr5/libc.a(strtod.o)
 .comment       0x0000000000000000       0x12 /usr/lib/gcc/avr/4.8.1/../../../avr/lib/avr5/libc.a(errno.o)

.note.gnu.build-id
 *(.note.gnu.build-id)

.debug
 *(.debug)

.line
 *(.line)

.debug_srcinfo
 *(.debug_srcinfo)

.debug_sfnames
 *(.debug_sfnames)

.debug_aranges
 *(.debug_aranges)

.debug_pubnames
 *(.debug_pubnames)

.debug_info
 *(.debug_info .gnu.linkonce.wi.*)

.debug_abbrev
 *(.debug_abbrev)

.debug_line
 *(.debug_line .debug_line.* .debug_line_end)

.debug_frame
 *(.debug_frame)

.debug_str
 *(.debug_str)

.debug_loc
 *(.debug_loc)

.debug_macinfo
 *(.debug_macinfo)

.debug_weaknames
 *(.debug_weaknames)

.debug_funcnames
 *(.debug_funcnames)

.debug_typenames
 *(.debug_typenames)

.debug_varnames
 *(.debug_varnames)

.debug_pubtypes
 *(.debug_pubtypes)

.debug_ranges
 *(.debug_ranges)

.debug_macro
 *(.debug_macro)
OUTPUT(ArduinoOrientationGame.elf elf32-avr)
LOAD linker stubs

Cross Reference Table

Symbol                                            File
AccelerometerMMA8451::AccelerometerMMA8451(bool)  /work/opensource/personal/microcontroller/arduino/ArduinoLibraries/ArduinoAccelerometerDriver/Release/libArduinoAccelerometerSensor.a(AccelerometerMMA8451.o)
AccelerometerMMA8451::AccelerometerMMA8451(bool)  /work/opensource/personal/microcontroller/arduino/ArduinoLibraries/ArduinoAccelerometerDriver/Release/libArduinoAccelerometerSensor.a(AccelerometerMMA8451.o)
                                                  ./main.o
AccelerometerMMA8451::convertToG(unsigned char*)  /work/opensource/personal/microcontroller/arduino/ArduinoLibraries/ArduinoAccelerometerDriver/Release/libArduinoAccelerometerSensor.a(AccelerometerMMA8451.o)
AccelerometerMMA8451::convertToG(unsigned char*, bool) /work/opensource/personal/microcontroller/arduino/ArduinoLibraries/ArduinoAccelerometerDriver/Release/libArduinoAccelerometerSensor.a(AccelerometerMMA8451.o)
AccelerometerMMA8451::deviceActivation(AccelerometerMMA8451::DeviceActivation) /work/opensource/personal/microcontroller/arduino/ArduinoLibraries/ArduinoAccelerometerDriver/Release/libArduinoAccelerometerSensor.a(AccelerometerMMA8451.o)
                                                  ./main.o
AccelerometerMMA8451::disableInterrupt(AccelerometerMMA8451::Interrupt) /work/opensource/personal/microcontroller/arduino/ArduinoLibraries/ArduinoAccelerometerDriver/Release/libArduinoAccelerometerSensor.a(AccelerometerMMA8451.o)
AccelerometerMMA8451::enableInterrupt(AccelerometerMMA8451::Interrupt) /work/opensource/personal/microcontroller/arduino/ArduinoLibraries/ArduinoAccelerometerDriver/Release/libArduinoAccelerometerSensor.a(AccelerometerMMA8451.o)
                                                  ./main.o
AccelerometerMMA8451::enableInterrupt(AccelerometerMMA8451::Interrupt, unsigned char) /work/opensource/personal/microcontroller/arduino/ArduinoLibraries/ArduinoAccelerometerDriver/Release/libArduinoAccelerometerSensor.a(AccelerometerMMA8451.o)
AccelerometerMMA8451::gerLastError()              /work/opensource/personal/microcontroller/arduino/ArduinoLibraries/ArduinoAccelerometerDriver/Release/libArduinoAccelerometerSensor.a(AccelerometerMMA8451.o)
AccelerometerMMA8451::getFifoFgt()                /work/opensource/personal/microcontroller/arduino/ArduinoLibraries/ArduinoAccelerometerDriver/Release/libArduinoAccelerometerSensor.a(AccelerometerMMA8451.o)
AccelerometerMMA8451::getFifoGateError()          /work/opensource/personal/microcontroller/arduino/ArduinoLibraries/ArduinoAccelerometerDriver/Release/libArduinoAccelerometerSensor.a(AccelerometerMMA8451.o)
AccelerometerMMA8451::getSysmod()                 /work/opensource/personal/microcontroller/arduino/ArduinoLibraries/ArduinoAccelerometerDriver/Release/libArduinoAccelerometerSensor.a(AccelerometerMMA8451.o)
AccelerometerMMA8451::highPassFilteredData(bool)  /work/opensource/personal/microcontroller/arduino/ArduinoLibraries/ArduinoAccelerometerDriver/Release/libArduinoAccelerometerSensor.a(AccelerometerMMA8451.o)
AccelerometerMMA8451::isDataReady()               /work/opensource/personal/microcontroller/arduino/ArduinoLibraries/ArduinoAccelerometerDriver/Release/libArduinoAccelerometerSensor.a(AccelerometerMMA8451.o)
AccelerometerMMA8451::readAxisGravity(unsigned char) /work/opensource/personal/microcontroller/arduino/ArduinoLibraries/ArduinoAccelerometerDriver/Release/libArduinoAccelerometerSensor.a(AccelerometerMMA8451.o)
AccelerometerMMA8451::readXYZ(unsigned char*)     /work/opensource/personal/microcontroller/arduino/ArduinoLibraries/ArduinoAccelerometerDriver/Release/libArduinoAccelerometerSensor.a(AccelerometerMMA8451.o)
AccelerometerMMA8451::readXg()                    /work/opensource/personal/microcontroller/arduino/ArduinoLibraries/ArduinoAccelerometerDriver/Release/libArduinoAccelerometerSensor.a(AccelerometerMMA8451.o)
AccelerometerMMA8451::readYg()                    /work/opensource/personal/microcontroller/arduino/ArduinoLibraries/ArduinoAccelerometerDriver/Release/libArduinoAccelerometerSensor.a(AccelerometerMMA8451.o)
AccelerometerMMA8451::readZg()                    /work/opensource/personal/microcontroller/arduino/ArduinoLibraries/ArduinoAccelerometerDriver/Release/libArduinoAccelerometerSensor.a(AccelerometerMMA8451.o)
AccelerometerMMA8451::routeInterrupt(AccelerometerMMA8451::Interrupt, unsigned char) /work/opensource/personal/microcontroller/arduino/ArduinoLibraries/ArduinoAccelerometerDriver/Release/libArduinoAccelerometerSensor.a(AccelerometerMMA8451.o)
AccelerometerMMA8451::routeInterruptToInt1(AccelerometerMMA8451::Interrupt) /work/opensource/personal/microcontroller/arduino/ArduinoLibraries/ArduinoAccelerometerDriver/Release/libArduinoAccelerometerSensor.a(AccelerometerMMA8451.o)
                                                  ./main.o
AccelerometerMMA8451::routeInterruptToInt2(AccelerometerMMA8451::Interrupt) /work/opensource/personal/microcontroller/arduino/ArduinoLibraries/ArduinoAccelerometerDriver/Release/libArduinoAccelerometerSensor.a(AccelerometerMMA8451.o)
AccelerometerMMA8451::setAslpOutputDataRate(AccelerometerMMA8451::AslpOutputDataRate) /work/opensource/personal/microcontroller/arduino/ArduinoLibraries/ArduinoAccelerometerDriver/Release/libArduinoAccelerometerSensor.a(AccelerometerMMA8451.o)
AccelerometerMMA8451::setBackFrontTrip(AccelerometerMMA8451::BackFrontTrip) /work/opensource/personal/microcontroller/arduino/ArduinoLibraries/ArduinoAccelerometerDriver/Release/libArduinoAccelerometerSensor.a(AccelerometerMMA8451.o)
AccelerometerMMA8451::setDynamicRange(AccelerometerMMA8451::DynamicRange) /work/opensource/personal/microcontroller/arduino/ArduinoLibraries/ArduinoAccelerometerDriver/Release/libArduinoAccelerometerSensor.a(AccelerometerMMA8451.o)
                                                  ./main.o
AccelerometerMMA8451::setFifoBufferOverflowMode(AccelerometerMMA8451::FifoBufferOverflowMode) /work/opensource/personal/microcontroller/arduino/ArduinoLibraries/ArduinoAccelerometerDriver/Release/libArduinoAccelerometerSensor.a(AccelerometerMMA8451.o)
AccelerometerMMA8451::setFifoWatermark(unsigned char) /work/opensource/personal/microcontroller/arduino/ArduinoLibraries/ArduinoAccelerometerDriver/Release/libArduinoAccelerometerSensor.a(AccelerometerMMA8451.o)
AccelerometerMMA8451::setHighPassFilterCutoffFrequency(AccelerometerMMA8451::HighPassFilterCutoffFrequency) /work/opensource/personal/microcontroller/arduino/ArduinoLibraries/ArduinoAccelerometerDriver/Release/libArduinoAccelerometerSensor.a(AccelerometerMMA8451.o)
AccelerometerMMA8451::setHysteresisAngle(AccelerometerMMA8451::HysteresisAngle) /work/opensource/personal/microcontroller/arduino/ArduinoLibraries/ArduinoAccelerometerDriver/Release/libArduinoAccelerometerSensor.a(AccelerometerMMA8451.o)
AccelerometerMMA8451::setInterruptPolarity(AccelerometerMMA8451::InterruptPolarity) /work/opensource/personal/microcontroller/arduino/ArduinoLibraries/ArduinoAccelerometerDriver/Release/libArduinoAccelerometerSensor.a(AccelerometerMMA8451.o)
AccelerometerMMA8451::setMotionDetection(bool, bool, unsigned char) /work/opensource/personal/microcontroller/arduino/ArduinoLibraries/ArduinoAccelerometerDriver/Release/libArduinoAccelerometerSensor.a(AccelerometerMMA8451.o)
AccelerometerMMA8451::setMotionDetectionCount(unsigned char) /work/opensource/personal/microcontroller/arduino/ArduinoLibraries/ArduinoAccelerometerDriver/Release/libArduinoAccelerometerSensor.a(AccelerometerMMA8451.o)
AccelerometerMMA8451::setMotionDetectionThreshold(bool, unsigned char) /work/opensource/personal/microcontroller/arduino/ArduinoLibraries/ArduinoAccelerometerDriver/Release/libArduinoAccelerometerSensor.a(AccelerometerMMA8451.o)
AccelerometerMMA8451::setOrientationBackFrontCompensation(unsigned char, unsigned char) /work/opensource/personal/microcontroller/arduino/ArduinoLibraries/ArduinoAccelerometerDriver/Release/libArduinoAccelerometerSensor.a(AccelerometerMMA8451.o)
                                                  ./main.o
AccelerometerMMA8451::setOrientationDebounceCounter(unsigned char) /work/opensource/personal/microcontroller/arduino/ArduinoLibraries/ArduinoAccelerometerDriver/Release/libArduinoAccelerometerSensor.a(AccelerometerMMA8451.o)
                                                  ./main.o
AccelerometerMMA8451::setOrientationDetection(bool, bool) /work/opensource/personal/microcontroller/arduino/ArduinoLibraries/ArduinoAccelerometerDriver/Release/libArduinoAccelerometerSensor.a(AccelerometerMMA8451.o)
                                                  ./main.o
AccelerometerMMA8451::setOrientationThresholdAndHysteresis(unsigned char, unsigned char) /work/opensource/personal/microcontroller/arduino/ArduinoLibraries/ArduinoAccelerometerDriver/Release/libArduinoAccelerometerSensor.a(AccelerometerMMA8451.o)
                                                  ./main.o
AccelerometerMMA8451::setOutputDataRate(AccelerometerMMA8451::OutputDataRate) /work/opensource/personal/microcontroller/arduino/ArduinoLibraries/ArduinoAccelerometerDriver/Release/libArduinoAccelerometerSensor.a(AccelerometerMMA8451.o)
                                                  ./main.o
AccelerometerMMA8451::setOversamplingMode(AccelerometerMMA8451::OversamplingMode) /work/opensource/personal/microcontroller/arduino/ArduinoLibraries/ArduinoAccelerometerDriver/Release/libArduinoAccelerometerSensor.a(AccelerometerMMA8451.o)
AccelerometerMMA8451::setPortraitLandscapeDetection(bool) /work/opensource/personal/microcontroller/arduino/ArduinoLibraries/ArduinoAccelerometerDriver/Release/libArduinoAccelerometerSensor.a(AccelerometerMMA8451.o)
AccelerometerMMA8451::setPortraitLandscapeThresholdAngle(AccelerometerMMA8451::PortraitLandscapeThresholdAngle) /work/opensource/personal/microcontroller/arduino/ArduinoLibraries/ArduinoAccelerometerDriver/Release/libArduinoAccelerometerSensor.a(AccelerometerMMA8451.o)
AccelerometerMMA8451::setPushPullOpenDrain(AccelerometerMMA8451::PushPullOpenDrain) /work/opensource/personal/microcontroller/arduino/ArduinoLibraries/ArduinoAccelerometerDriver/Release/libArduinoAccelerometerSensor.a(AccelerometerMMA8451.o)
AccelerometerMMA8451::setReadMode(AccelerometerMMA8451::ReadMode) /work/opensource/personal/microcontroller/arduino/ArduinoLibraries/ArduinoAccelerometerDriver/Release/libArduinoAccelerometerSensor.a(AccelerometerMMA8451.o)
AccelerometerMMA8451::setTransientCount(unsigned char) /work/opensource/personal/microcontroller/arduino/ArduinoLibraries/ArduinoAccelerometerDriver/Release/libArduinoAccelerometerSensor.a(AccelerometerMMA8451.o)
AccelerometerMMA8451::setTransientDetection(bool, unsigned char, bool) /work/opensource/personal/microcontroller/arduino/ArduinoLibraries/ArduinoAccelerometerDriver/Release/libArduinoAccelerometerSensor.a(AccelerometerMMA8451.o)
AccelerometerMMA8451::setTransientThreshold(bool, unsigned char) /work/opensource/personal/microcontroller/arduino/ArduinoLibraries/ArduinoAccelerometerDriver/Release/libArduinoAccelerometerSensor.a(AccelerometerMMA8451.o)
AccelerometerMMA8451::setZLockThresholdAngle(AccelerometerMMA8451::ZLockThresholdAngle) /work/opensource/personal/microcontroller/arduino/ArduinoLibraries/ArduinoAccelerometerDriver/Release/libArduinoAccelerometerSensor.a(AccelerometerMMA8451.o)
ByteArrayInputStream::ByteArrayInputStream(unsigned char*, unsigned int) /work/opensource/personal/microcontroller/arduino/ArduinoLibraries/ArduinoIO/Release/libArduinoIO.a(ByteArrayInputStream.o)
ByteArrayInputStream::ByteArrayInputStream(unsigned char*, unsigned int) /work/opensource/personal/microcontroller/arduino/ArduinoLibraries/ArduinoIO/Release/libArduinoIO.a(ByteArrayInputStream.o)
                                                  ./main.o
ByteArrayInputStream::available()                 /work/opensource/personal/microcontroller/arduino/ArduinoLibraries/ArduinoIO/Release/libArduinoIO.a(ByteArrayInputStream.o)
ByteArrayInputStream::mark()                      /work/opensource/personal/microcontroller/arduino/ArduinoLibraries/ArduinoIO/Release/libArduinoIO.a(ByteArrayInputStream.o)
ByteArrayInputStream::markSupported()             /work/opensource/personal/microcontroller/arduino/ArduinoLibraries/ArduinoIO/Release/libArduinoIO.a(ByteArrayInputStream.o)
ByteArrayInputStream::read()                      /work/opensource/personal/microcontroller/arduino/ArduinoLibraries/ArduinoIO/Release/libArduinoIO.a(ByteArrayInputStream.o)
ByteArrayInputStream::reset()                     /work/opensource/personal/microcontroller/arduino/ArduinoLibraries/ArduinoIO/Release/libArduinoIO.a(ByteArrayInputStream.o)
ByteArrayInputStream::seek(unsigned int)          /work/opensource/personal/microcontroller/arduino/ArduinoLibraries/ArduinoIO/Release/libArduinoIO.a(ByteArrayInputStream.o)
                                                  ./main.o
ByteArrayOutputStream::ByteArrayOutputStream(unsigned char*, unsigned int) /work/opensource/personal/microcontroller/arduino/ArduinoLibraries/ArduinoIO/Release/libArduinoIO.a(ByteArrayOutputStream.o)
ByteArrayOutputStream::ByteArrayOutputStream(unsigned char*, unsigned int) /work/opensource/personal/microcontroller/arduino/ArduinoLibraries/ArduinoIO/Release/libArduinoIO.a(ByteArrayOutputStream.o)
                                                  ./main.o
ByteArrayOutputStream::mark()                     /work/opensource/personal/microcontroller/arduino/ArduinoLibraries/ArduinoIO/Release/libArduinoIO.a(ByteArrayOutputStream.o)
ByteArrayOutputStream::markSupported()            /work/opensource/personal/microcontroller/arduino/ArduinoLibraries/ArduinoIO/Release/libArduinoIO.a(ByteArrayOutputStream.o)
ByteArrayOutputStream::reset()                    /work/opensource/personal/microcontroller/arduino/ArduinoLibraries/ArduinoIO/Release/libArduinoIO.a(ByteArrayOutputStream.o)
ByteArrayOutputStream::seek(unsigned int)         /work/opensource/personal/microcontroller/arduino/ArduinoLibraries/ArduinoIO/Release/libArduinoIO.a(ByteArrayOutputStream.o)
ByteArrayOutputStream::size()                     /work/opensource/personal/microcontroller/arduino/ArduinoLibraries/ArduinoIO/Release/libArduinoIO.a(ByteArrayOutputStream.o)
ByteArrayOutputStream::toByteArray()              /work/opensource/personal/microcontroller/arduino/ArduinoLibraries/ArduinoIO/Release/libArduinoIO.a(ByteArrayOutputStream.o)
ByteArrayOutputStream::write(unsigned char)       /work/opensource/personal/microcontroller/arduino/ArduinoLibraries/ArduinoIO/Release/libArduinoIO.a(ByteArrayOutputStream.o)
ByteArrayOutputStream::~ByteArrayOutputStream()   /work/opensource/personal/microcontroller/arduino/ArduinoLibraries/ArduinoIO/Release/libArduinoIO.a(ByteArrayOutputStream.o)
ByteArrayOutputStream::~ByteArrayOutputStream()   /work/opensource/personal/microcontroller/arduino/ArduinoLibraries/ArduinoIO/Release/libArduinoIO.a(ByteArrayOutputStream.o)
DataInputStream::DataInputStream(InputStream*)    /work/opensource/personal/microcontroller/arduino/ArduinoLibraries/ArduinoIO/Release/libArduinoIO.a(DataInputStream.o)
DataInputStream::DataInputStream(InputStream*)    /work/opensource/personal/microcontroller/arduino/ArduinoLibraries/ArduinoIO/Release/libArduinoIO.a(DataInputStream.o)
                                                  ./main.o
DataInputStream::readBoolean()                    /work/opensource/personal/microcontroller/arduino/ArduinoLibraries/ArduinoIO/Release/libArduinoIO.a(DataInputStream.o)
DataInputStream::readByte()                       /work/opensource/personal/microcontroller/arduino/ArduinoLibraries/ArduinoIO/Release/libArduinoIO.a(DataInputStream.o)
DataInputStream::readChar()                       /work/opensource/personal/microcontroller/arduino/ArduinoLibraries/ArduinoIO/Release/libArduinoIO.a(DataInputStream.o)
DataInputStream::readDouble()                     /work/opensource/personal/microcontroller/arduino/ArduinoLibraries/ArduinoIO/Release/libArduinoIO.a(DataInputStream.o)
DataInputStream::readFloat()                      /work/opensource/personal/microcontroller/arduino/ArduinoLibraries/ArduinoIO/Release/libArduinoIO.a(DataInputStream.o)
DataInputStream::readFully(unsigned char*, int)   /work/opensource/personal/microcontroller/arduino/ArduinoLibraries/ArduinoIO/Release/libArduinoIO.a(DataInputStream.o)
DataInputStream::readInt()                        /work/opensource/personal/microcontroller/arduino/ArduinoLibraries/ArduinoIO/Release/libArduinoIO.a(DataInputStream.o)
DataInputStream::readLong()                       /work/opensource/personal/microcontroller/arduino/ArduinoLibraries/ArduinoIO/Release/libArduinoIO.a(DataInputStream.o)
DataInputStream::readUnsignedChar()               /work/opensource/personal/microcontroller/arduino/ArduinoLibraries/ArduinoIO/Release/libArduinoIO.a(DataInputStream.o)
                                                  ./main.o
DataInputStream::readUnsignedInt()                /work/opensource/personal/microcontroller/arduino/ArduinoLibraries/ArduinoIO/Release/libArduinoIO.a(DataInputStream.o)
DataInputStream::readUnsignedLong()               /work/opensource/personal/microcontroller/arduino/ArduinoLibraries/ArduinoIO/Release/libArduinoIO.a(DataInputStream.o)
DataInputStream::readWord()                       /work/opensource/personal/microcontroller/arduino/ArduinoLibraries/ArduinoIO/Release/libArduinoIO.a(DataInputStream.o)
DataInputStream::skipBytes(unsigned int)          /work/opensource/personal/microcontroller/arduino/ArduinoLibraries/ArduinoIO/Release/libArduinoIO.a(DataInputStream.o)
DataOutputStream::DataOutputStream(OutputStream*) /work/opensource/personal/microcontroller/arduino/ArduinoLibraries/ArduinoIO/Release/libArduinoIO.a(DataOutputStream.o)
DataOutputStream::DataOutputStream(OutputStream*) /work/opensource/personal/microcontroller/arduino/ArduinoLibraries/ArduinoIO/Release/libArduinoIO.a(DataOutputStream.o)
                                                  ./main.o
DataOutputStream::write(unsigned char)            /work/opensource/personal/microcontroller/arduino/ArduinoLibraries/ArduinoIO/Release/libArduinoIO.a(DataOutputStream.o)
DataOutputStream::write(unsigned char*, int)      /work/opensource/personal/microcontroller/arduino/ArduinoLibraries/ArduinoIO/Release/libArduinoIO.a(DataOutputStream.o)
DataOutputStream::writeBoolean(bool)              /work/opensource/personal/microcontroller/arduino/ArduinoLibraries/ArduinoIO/Release/libArduinoIO.a(DataOutputStream.o)
DataOutputStream::writeByte(unsigned char)        /work/opensource/personal/microcontroller/arduino/ArduinoLibraries/ArduinoIO/Release/libArduinoIO.a(DataOutputStream.o)
DataOutputStream::writeBytes(unsigned char*, int) /work/opensource/personal/microcontroller/arduino/ArduinoLibraries/ArduinoIO/Release/libArduinoIO.a(DataOutputStream.o)
DataOutputStream::writeChar(char)                 /work/opensource/personal/microcontroller/arduino/ArduinoLibraries/ArduinoIO/Release/libArduinoIO.a(DataOutputStream.o)
DataOutputStream::writeDouble(double)             /work/opensource/personal/microcontroller/arduino/ArduinoLibraries/ArduinoIO/Release/libArduinoIO.a(DataOutputStream.o)
DataOutputStream::writeFloat(float)               /work/opensource/personal/microcontroller/arduino/ArduinoLibraries/ArduinoIO/Release/libArduinoIO.a(DataOutputStream.o)
DataOutputStream::writeInt(int)                   /work/opensource/personal/microcontroller/arduino/ArduinoLibraries/ArduinoIO/Release/libArduinoIO.a(DataOutputStream.o)
DataOutputStream::writeLong(long)                 /work/opensource/personal/microcontroller/arduino/ArduinoLibraries/ArduinoIO/Release/libArduinoIO.a(DataOutputStream.o)
DataOutputStream::writeUnsignedChar(unsigned char) /work/opensource/personal/microcontroller/arduino/ArduinoLibraries/ArduinoIO/Release/libArduinoIO.a(DataOutputStream.o)
DataOutputStream::writeUnsignedInt(unsigned int)  /work/opensource/personal/microcontroller/arduino/ArduinoLibraries/ArduinoIO/Release/libArduinoIO.a(DataOutputStream.o)
DataOutputStream::writeUnsignedLong(unsigned long) /work/opensource/personal/microcontroller/arduino/ArduinoLibraries/ArduinoIO/Release/libArduinoIO.a(DataOutputStream.o)
DataOutputStream::writeWord(unsigned int)         /work/opensource/personal/microcontroller/arduino/ArduinoLibraries/ArduinoIO/Release/libArduinoIO.a(DataOutputStream.o)
EepromBasedWiredDevice::EepromBasedWiredDevice(unsigned char) /work/opensource/personal/microcontroller/arduino/ArduinoLibraries/ArduinoDevice/Release/libArduinoDevice.a(EepromBasedWiredDevice.o)
                                                  /work/opensource/personal/microcontroller/arduino/ArduinoLibraries/ArduinoMemoryDriver/Release/libArduinoMemoryDriver.a(ExternalEeprom.o)
EepromBasedWiredDevice::EepromBasedWiredDevice(unsigned char) /work/opensource/personal/microcontroller/arduino/ArduinoLibraries/ArduinoDevice/Release/libArduinoDevice.a(EepromBasedWiredDevice.o)
EepromBasedWiredDevice::EepromBasedWiredDevice(unsigned char, char) /work/opensource/personal/microcontroller/arduino/ArduinoLibraries/ArduinoDevice/Release/libArduinoDevice.a(EepromBasedWiredDevice.o)
EepromBasedWiredDevice::EepromBasedWiredDevice(unsigned char, char) /work/opensource/personal/microcontroller/arduino/ArduinoLibraries/ArduinoDevice/Release/libArduinoDevice.a(EepromBasedWiredDevice.o)
EepromBasedWiredDevice::EepromBasedWiredDevice(unsigned char, char, unsigned char) /work/opensource/personal/microcontroller/arduino/ArduinoLibraries/ArduinoDevice/Release/libArduinoDevice.a(EepromBasedWiredDevice.o)
EepromBasedWiredDevice::EepromBasedWiredDevice(unsigned char, char, unsigned char) /work/opensource/personal/microcontroller/arduino/ArduinoLibraries/ArduinoDevice/Release/libArduinoDevice.a(EepromBasedWiredDevice.o)
EepromBasedWiredDevice::getAddressSize()          /work/opensource/personal/microcontroller/arduino/ArduinoLibraries/ArduinoDevice/Release/libArduinoDevice.a(EepromBasedWiredDevice.o)
EepromBasedWiredDevice::readBlock(unsigned int, unsigned char*, int) /work/opensource/personal/microcontroller/arduino/ArduinoLibraries/ArduinoDevice/Release/libArduinoDevice.a(EepromBasedWiredDevice.o)
                                                  /work/opensource/personal/microcontroller/arduino/ArduinoLibraries/ArduinoMemoryDriver/Release/libArduinoMemoryDriver.a(External24cl256Eeprom.o)
                                                  /work/opensource/personal/microcontroller/arduino/ArduinoLibraries/ArduinoMemoryDriver/Release/libArduinoMemoryDriver.a(ExternalEeprom.o)
                                                  ./main.o
EepromBasedWiredDevice::setAddressSize(char)      /work/opensource/personal/microcontroller/arduino/ArduinoLibraries/ArduinoDevice/Release/libArduinoDevice.a(EepromBasedWiredDevice.o)
                                                  /work/opensource/personal/microcontroller/arduino/ArduinoLibraries/ArduinoMemoryDriver/Release/libArduinoMemoryDriver.a(External24cl256Eeprom.o)
EepromBasedWiredDevice::writeBlock(unsigned int, unsigned char*, int) /work/opensource/personal/microcontroller/arduino/ArduinoLibraries/ArduinoDevice/Release/libArduinoDevice.a(EepromBasedWiredDevice.o)
                                                  /work/opensource/personal/microcontroller/arduino/ArduinoLibraries/ArduinoMemoryDriver/Release/libArduinoMemoryDriver.a(External24cl256Eeprom.o)
                                                  /work/opensource/personal/microcontroller/arduino/ArduinoLibraries/ArduinoMemoryDriver/Release/libArduinoMemoryDriver.a(ExternalEeprom.o)
                                                  ./main.o
EepromBasedWiredDevice::~EepromBasedWiredDevice() /work/opensource/personal/microcontroller/arduino/ArduinoLibraries/ArduinoDevice/Release/libArduinoDevice.a(EepromBasedWiredDevice.o)
EepromBasedWiredDevice::~EepromBasedWiredDevice() /work/opensource/personal/microcontroller/arduino/ArduinoLibraries/ArduinoDevice/Release/libArduinoDevice.a(EepromBasedWiredDevice.o)
EepromBasedWiredDevice::~EepromBasedWiredDevice() /work/opensource/personal/microcontroller/arduino/ArduinoLibraries/ArduinoDevice/Release/libArduinoDevice.a(EepromBasedWiredDevice.o)
External24cl256Eeprom::External24cl256Eeprom(unsigned char) /work/opensource/personal/microcontroller/arduino/ArduinoLibraries/ArduinoMemoryDriver/Release/libArduinoMemoryDriver.a(External24cl256Eeprom.o)
                                                  ./main.o
External24cl256Eeprom::External24cl256Eeprom(unsigned char) /work/opensource/personal/microcontroller/arduino/ArduinoLibraries/ArduinoMemoryDriver/Release/libArduinoMemoryDriver.a(External24cl256Eeprom.o)
External24cl256Eeprom::~External24cl256Eeprom()   ./main.o
                                                  /work/opensource/personal/microcontroller/arduino/ArduinoLibraries/ArduinoMemoryDriver/Release/libArduinoMemoryDriver.a(External24cl256Eeprom.o)
External24cl256Eeprom::~External24cl256Eeprom()   ./main.o
                                                  /work/opensource/personal/microcontroller/arduino/ArduinoLibraries/ArduinoMemoryDriver/Release/libArduinoMemoryDriver.a(External24cl256Eeprom.o)
External24cl256Eeprom::~External24cl256Eeprom()   ./main.o
                                                  /work/opensource/personal/microcontroller/arduino/ArduinoLibraries/ArduinoMemoryDriver/Release/libArduinoMemoryDriver.a(External24cl256Eeprom.o)
ExternalEeprom::ExternalEeprom(unsigned char, int, unsigned int) /work/opensource/personal/microcontroller/arduino/ArduinoLibraries/ArduinoMemoryDriver/Release/libArduinoMemoryDriver.a(ExternalEeprom.o)
                                                  /work/opensource/personal/microcontroller/arduino/ArduinoLibraries/ArduinoMemoryDriver/Release/libArduinoMemoryDriver.a(External24cl256Eeprom.o)
ExternalEeprom::ExternalEeprom(unsigned char, int, unsigned int) /work/opensource/personal/microcontroller/arduino/ArduinoLibraries/ArduinoMemoryDriver/Release/libArduinoMemoryDriver.a(ExternalEeprom.o)
ExternalEeprom::endOfPage(unsigned int)           /work/opensource/personal/microcontroller/arduino/ArduinoLibraries/ArduinoMemoryDriver/Release/libArduinoMemoryDriver.a(ExternalEeprom.o)
ExternalEeprom::read(unsigned int)                /work/opensource/personal/microcontroller/arduino/ArduinoLibraries/ArduinoMemoryDriver/Release/libArduinoMemoryDriver.a(ExternalEeprom.o)
                                                  /work/opensource/personal/microcontroller/arduino/ArduinoLibraries/ArduinoMemoryDriver/Release/libArduinoMemoryDriver.a(External24cl256Eeprom.o)
                                                  ./main.o
ExternalEeprom::readBytes(unsigned int, unsigned char*, int) /work/opensource/personal/microcontroller/arduino/ArduinoLibraries/ArduinoMemoryDriver/Release/libArduinoMemoryDriver.a(ExternalEeprom.o)
                                                  /work/opensource/personal/microcontroller/arduino/ArduinoLibraries/ArduinoMemoryDriver/Release/libArduinoMemoryDriver.a(External24cl256Eeprom.o)
                                                  ./main.o
ExternalEeprom::setBytes(unsigned int, unsigned char, int) /work/opensource/personal/microcontroller/arduino/ArduinoLibraries/ArduinoMemoryDriver/Release/libArduinoMemoryDriver.a(ExternalEeprom.o)
                                                  /work/opensource/personal/microcontroller/arduino/ArduinoLibraries/ArduinoMemoryDriver/Release/libArduinoMemoryDriver.a(External24cl256Eeprom.o)
                                                  ./main.o
ExternalEeprom::write(unsigned int, unsigned char) /work/opensource/personal/microcontroller/arduino/ArduinoLibraries/ArduinoMemoryDriver/Release/libArduinoMemoryDriver.a(ExternalEeprom.o)
                                                  /work/opensource/personal/microcontroller/arduino/ArduinoLibraries/ArduinoMemoryDriver/Release/libArduinoMemoryDriver.a(External24cl256Eeprom.o)
                                                  ./main.o
ExternalEeprom::writeBytes(unsigned int, unsigned char*, int) /work/opensource/personal/microcontroller/arduino/ArduinoLibraries/ArduinoMemoryDriver/Release/libArduinoMemoryDriver.a(ExternalEeprom.o)
                                                  /work/opensource/personal/microcontroller/arduino/ArduinoLibraries/ArduinoMemoryDriver/Release/libArduinoMemoryDriver.a(External24cl256Eeprom.o)
                                                  ./main.o
ExternalEeprom::~ExternalEeprom()                 /work/opensource/personal/microcontroller/arduino/ArduinoLibraries/ArduinoMemoryDriver/Release/libArduinoMemoryDriver.a(ExternalEeprom.o)
ExternalEeprom::~ExternalEeprom()                 /work/opensource/personal/microcontroller/arduino/ArduinoLibraries/ArduinoMemoryDriver/Release/libArduinoMemoryDriver.a(ExternalEeprom.o)
ExternalEeprom::~ExternalEeprom()                 /work/opensource/personal/microcontroller/arduino/ArduinoLibraries/ArduinoMemoryDriver/Release/libArduinoMemoryDriver.a(ExternalEeprom.o)
ExternalEepromInputStream::ExternalEepromInputStream(ExternalEeprom*) /work/opensource/personal/microcontroller/arduino/ArduinoLibraries/ArduinoIO/Release/libArduinoIO.a(ExternalEepromInputStream.o)
                                                  ./main.o
ExternalEepromInputStream::ExternalEepromInputStream(ExternalEeprom*) /work/opensource/personal/microcontroller/arduino/ArduinoLibraries/ArduinoIO/Release/libArduinoIO.a(ExternalEepromInputStream.o)
ExternalEepromInputStream::available()            /work/opensource/personal/microcontroller/arduino/ArduinoLibraries/ArduinoIO/Release/libArduinoIO.a(ExternalEepromInputStream.o)
ExternalEepromInputStream::mark()                 /work/opensource/personal/microcontroller/arduino/ArduinoLibraries/ArduinoIO/Release/libArduinoIO.a(ExternalEepromInputStream.o)
ExternalEepromInputStream::markSupported()        /work/opensource/personal/microcontroller/arduino/ArduinoLibraries/ArduinoIO/Release/libArduinoIO.a(ExternalEepromInputStream.o)
ExternalEepromInputStream::read()                 /work/opensource/personal/microcontroller/arduino/ArduinoLibraries/ArduinoIO/Release/libArduinoIO.a(ExternalEepromInputStream.o)
ExternalEepromInputStream::read(unsigned char*, int, int) /work/opensource/personal/microcontroller/arduino/ArduinoLibraries/ArduinoIO/Release/libArduinoIO.a(ExternalEepromInputStream.o)
ExternalEepromInputStream::reset()                /work/opensource/personal/microcontroller/arduino/ArduinoLibraries/ArduinoIO/Release/libArduinoIO.a(ExternalEepromInputStream.o)
ExternalEepromInputStream::seek(unsigned int)     /work/opensource/personal/microcontroller/arduino/ArduinoLibraries/ArduinoIO/Release/libArduinoIO.a(ExternalEepromInputStream.o)
ExternalEepromOutputStream::ExternalEepromOutputStream(ExternalEeprom*) /work/opensource/personal/microcontroller/arduino/ArduinoLibraries/ArduinoIO/Release/libArduinoIO.a(ExternalEepromOutputStream.o)
ExternalEepromOutputStream::ExternalEepromOutputStream(ExternalEeprom*) /work/opensource/personal/microcontroller/arduino/ArduinoLibraries/ArduinoIO/Release/libArduinoIO.a(ExternalEepromOutputStream.o)
                                                  ./main.o
ExternalEepromOutputStream::mark()                /work/opensource/personal/microcontroller/arduino/ArduinoLibraries/ArduinoIO/Release/libArduinoIO.a(ExternalEepromOutputStream.o)
ExternalEepromOutputStream::markSupported()       /work/opensource/personal/microcontroller/arduino/ArduinoLibraries/ArduinoIO/Release/libArduinoIO.a(ExternalEepromOutputStream.o)
ExternalEepromOutputStream::reset()               /work/opensource/personal/microcontroller/arduino/ArduinoLibraries/ArduinoIO/Release/libArduinoIO.a(ExternalEepromOutputStream.o)
ExternalEepromOutputStream::seek(unsigned int)    /work/opensource/personal/microcontroller/arduino/ArduinoLibraries/ArduinoIO/Release/libArduinoIO.a(ExternalEepromOutputStream.o)
ExternalEepromOutputStream::write(unsigned char)  /work/opensource/personal/microcontroller/arduino/ArduinoLibraries/ArduinoIO/Release/libArduinoIO.a(ExternalEepromOutputStream.o)
ExternalEepromOutputStream::write(unsigned char*, int, int) /work/opensource/personal/microcontroller/arduino/ArduinoLibraries/ArduinoIO/Release/libArduinoIO.a(ExternalEepromOutputStream.o)
HardwareSerial::_tx_udr_empty_irq()               /work/opensource/personal/microcontroller/arduino/ArduinoLibraries/ArduinoCore/Release/libArduinoCore.a(HardwareSerial.o)
                                                  /work/opensource/personal/microcontroller/arduino/ArduinoLibraries/ArduinoCore/Release/libArduinoCore.a(HardwareSerial0.o)
HardwareSerial::available()                       /work/opensource/personal/microcontroller/arduino/ArduinoLibraries/ArduinoCore/Release/libArduinoCore.a(HardwareSerial.o)
                                                  /work/opensource/personal/microcontroller/arduino/ArduinoLibraries/ArduinoCore/Release/libArduinoCore.a(HardwareSerial0.o)
HardwareSerial::availableForWrite()               /work/opensource/personal/microcontroller/arduino/ArduinoLibraries/ArduinoCore/Release/libArduinoCore.a(HardwareSerial.o)
HardwareSerial::begin(unsigned long, unsigned char) /work/opensource/personal/microcontroller/arduino/ArduinoLibraries/ArduinoCore/Release/libArduinoCore.a(HardwareSerial.o)
                                                  ./main.o
HardwareSerial::end()                             /work/opensource/personal/microcontroller/arduino/ArduinoLibraries/ArduinoCore/Release/libArduinoCore.a(HardwareSerial.o)
HardwareSerial::flush()                           /work/opensource/personal/microcontroller/arduino/ArduinoLibraries/ArduinoCore/Release/libArduinoCore.a(HardwareSerial.o)
HardwareSerial::peek()                            /work/opensource/personal/microcontroller/arduino/ArduinoLibraries/ArduinoCore/Release/libArduinoCore.a(HardwareSerial.o)
HardwareSerial::read()                            /work/opensource/personal/microcontroller/arduino/ArduinoLibraries/ArduinoCore/Release/libArduinoCore.a(HardwareSerial.o)
HardwareSerial::write(unsigned char)              /work/opensource/personal/microcontroller/arduino/ArduinoLibraries/ArduinoCore/Release/libArduinoCore.a(HardwareSerial.o)
InputStream::available()                          /work/opensource/personal/microcontroller/arduino/ArduinoLibraries/ArduinoIO/Release/libArduinoIO.a(InputStream.o)
                                                  /work/opensource/personal/microcontroller/arduino/ArduinoLibraries/ArduinoIO/Release/libArduinoIO.a(ByteArrayInputStream.o)
                                                  /work/opensource/personal/microcontroller/arduino/ArduinoLibraries/ArduinoIO/Release/libArduinoIO.a(ExternalEepromInputStream.o)
                                                  /work/opensource/personal/microcontroller/arduino/ArduinoLibraries/ArduinoIO/Release/libArduinoIO.a(SoftwareSerialInputStream.o)
InputStream::close()                              /work/opensource/personal/microcontroller/arduino/ArduinoLibraries/ArduinoIO/Release/libArduinoIO.a(InputStream.o)
                                                  /work/opensource/personal/microcontroller/arduino/ArduinoLibraries/ArduinoIO/Release/libArduinoIO.a(ByteArrayInputStream.o)
                                                  /work/opensource/personal/microcontroller/arduino/ArduinoLibraries/ArduinoIO/Release/libArduinoIO.a(ExternalEepromInputStream.o)
                                                  /work/opensource/personal/microcontroller/arduino/ArduinoLibraries/ArduinoIO/Release/libArduinoIO.a(SoftwareSerialInputStream.o)
InputStream::mark()                               /work/opensource/personal/microcontroller/arduino/ArduinoLibraries/ArduinoIO/Release/libArduinoIO.a(InputStream.o)
                                                  /work/opensource/personal/microcontroller/arduino/ArduinoLibraries/ArduinoIO/Release/libArduinoIO.a(ByteArrayInputStream.o)
                                                  /work/opensource/personal/microcontroller/arduino/ArduinoLibraries/ArduinoIO/Release/libArduinoIO.a(ExternalEepromInputStream.o)
                                                  /work/opensource/personal/microcontroller/arduino/ArduinoLibraries/ArduinoIO/Release/libArduinoIO.a(SoftwareSerialInputStream.o)
InputStream::markSupported()                      /work/opensource/personal/microcontroller/arduino/ArduinoLibraries/ArduinoIO/Release/libArduinoIO.a(InputStream.o)
                                                  /work/opensource/personal/microcontroller/arduino/ArduinoLibraries/ArduinoIO/Release/libArduinoIO.a(ByteArrayInputStream.o)
                                                  /work/opensource/personal/microcontroller/arduino/ArduinoLibraries/ArduinoIO/Release/libArduinoIO.a(ExternalEepromInputStream.o)
                                                  /work/opensource/personal/microcontroller/arduino/ArduinoLibraries/ArduinoIO/Release/libArduinoIO.a(SoftwareSerialInputStream.o)
InputStream::read(unsigned char*, int)            /work/opensource/personal/microcontroller/arduino/ArduinoLibraries/ArduinoIO/Release/libArduinoIO.a(InputStream.o)
                                                  /work/opensource/personal/microcontroller/arduino/ArduinoLibraries/ArduinoIO/Release/libArduinoIO.a(ByteArrayInputStream.o)
                                                  /work/opensource/personal/microcontroller/arduino/ArduinoLibraries/ArduinoIO/Release/libArduinoIO.a(ExternalEepromInputStream.o)
                                                  /work/opensource/personal/microcontroller/arduino/ArduinoLibraries/ArduinoIO/Release/libArduinoIO.a(SoftwareSerialInputStream.o)
InputStream::read(unsigned char*, int, int)       /work/opensource/personal/microcontroller/arduino/ArduinoLibraries/ArduinoIO/Release/libArduinoIO.a(InputStream.o)
                                                  /work/opensource/personal/microcontroller/arduino/ArduinoLibraries/ArduinoIO/Release/libArduinoIO.a(ByteArrayInputStream.o)
                                                  /work/opensource/personal/microcontroller/arduino/ArduinoLibraries/ArduinoIO/Release/libArduinoIO.a(ExternalEepromInputStream.o)
                                                  /work/opensource/personal/microcontroller/arduino/ArduinoLibraries/ArduinoIO/Release/libArduinoIO.a(SoftwareSerialInputStream.o)
InputStream::reset()                              /work/opensource/personal/microcontroller/arduino/ArduinoLibraries/ArduinoIO/Release/libArduinoIO.a(InputStream.o)
                                                  /work/opensource/personal/microcontroller/arduino/ArduinoLibraries/ArduinoIO/Release/libArduinoIO.a(ByteArrayInputStream.o)
                                                  /work/opensource/personal/microcontroller/arduino/ArduinoLibraries/ArduinoIO/Release/libArduinoIO.a(ExternalEepromInputStream.o)
                                                  /work/opensource/personal/microcontroller/arduino/ArduinoLibraries/ArduinoIO/Release/libArduinoIO.a(SoftwareSerialInputStream.o)
InputStream::skip(unsigned int)                   /work/opensource/personal/microcontroller/arduino/ArduinoLibraries/ArduinoIO/Release/libArduinoIO.a(InputStream.o)
                                                  /work/opensource/personal/microcontroller/arduino/ArduinoLibraries/ArduinoIO/Release/libArduinoIO.a(ByteArrayInputStream.o)
                                                  /work/opensource/personal/microcontroller/arduino/ArduinoLibraries/ArduinoIO/Release/libArduinoIO.a(ExternalEepromInputStream.o)
                                                  /work/opensource/personal/microcontroller/arduino/ArduinoLibraries/ArduinoIO/Release/libArduinoIO.a(SoftwareSerialInputStream.o)
Message::Message()                                /work/opensource/personal/microcontroller/arduino/ArduinoLibraries/ArduinoMessagingProtocol/Release/libArduinoMessagingProtocol.a(Message.o)
Message::Message()                                /work/opensource/personal/microcontroller/arduino/ArduinoLibraries/ArduinoMessagingProtocol/Release/libArduinoMessagingProtocol.a(Message.o)
Message::Message(unsigned char*)                  /work/opensource/personal/microcontroller/arduino/ArduinoLibraries/ArduinoMessagingProtocol/Release/libArduinoMessagingProtocol.a(Message.o)
                                                  ./main.o
Message::Message(unsigned char*)                  /work/opensource/personal/microcontroller/arduino/ArduinoLibraries/ArduinoMessagingProtocol/Release/libArduinoMessagingProtocol.a(Message.o)
Message::Message(unsigned char, unsigned char, unsigned char, unsigned char*) /work/opensource/personal/microcontroller/arduino/ArduinoLibraries/ArduinoMessagingProtocol/Release/libArduinoMessagingProtocol.a(Message.o)
Message::Message(unsigned char, unsigned char, unsigned char, unsigned char*) /work/opensource/personal/microcontroller/arduino/ArduinoLibraries/ArduinoMessagingProtocol/Release/libArduinoMessagingProtocol.a(Message.o)
Message::generateNextId()                         /work/opensource/personal/microcontroller/arduino/ArduinoLibraries/ArduinoMessagingProtocol/Release/libArduinoMessagingProtocol.a(Message.o)
                                                  /work/opensource/personal/microcontroller/arduino/ArduinoLibraries/ArduinoMessagingProtocol/Release/libArduinoMessagingProtocol.a(RemoteDevice.o)
Message::getId()                                  /work/opensource/personal/microcontroller/arduino/ArduinoLibraries/ArduinoMessagingProtocol/Release/libArduinoMessagingProtocol.a(Message.o)
                                                  /work/opensource/personal/microcontroller/arduino/ArduinoLibraries/ArduinoMessagingProtocol/Release/libArduinoMessagingProtocol.a(RemoteDevice.o)
Message::getPayload()                             /work/opensource/personal/microcontroller/arduino/ArduinoLibraries/ArduinoMessagingProtocol/Release/libArduinoMessagingProtocol.a(Message.o)
                                                  /work/opensource/personal/microcontroller/arduino/ArduinoLibraries/ArduinoMessagingProtocol/Release/libArduinoMessagingProtocol.a(MessageParser.o)
                                                  /work/opensource/personal/microcontroller/arduino/ArduinoLibraries/ArduinoMessagingProtocol/Release/libArduinoMessagingProtocol.a(RemoteDevice.o)
Message::getPayloadSize()                         /work/opensource/personal/microcontroller/arduino/ArduinoLibraries/ArduinoMessagingProtocol/Release/libArduinoMessagingProtocol.a(Message.o)
                                                  /work/opensource/personal/microcontroller/arduino/ArduinoLibraries/ArduinoMessagingProtocol/Release/libArduinoMessagingProtocol.a(RemoteDevice.o)
Message::getType()                                /work/opensource/personal/microcontroller/arduino/ArduinoLibraries/ArduinoMessagingProtocol/Release/libArduinoMessagingProtocol.a(Message.o)
                                                  /work/opensource/personal/microcontroller/arduino/ArduinoLibraries/ArduinoMessagingProtocol/Release/libArduinoMessagingProtocol.a(RemoteDevice.o)
                                                  ./main.o
Message::nextId                                   /work/opensource/personal/microcontroller/arduino/ArduinoLibraries/ArduinoMessagingProtocol/Release/libArduinoMessagingProtocol.a(Message.o)
Message::reset()                                  /work/opensource/personal/microcontroller/arduino/ArduinoLibraries/ArduinoMessagingProtocol/Release/libArduinoMessagingProtocol.a(Message.o)
                                                  /work/opensource/personal/microcontroller/arduino/ArduinoLibraries/ArduinoMessagingProtocol/Release/libArduinoMessagingProtocol.a(RemoteDevice.o)
Message::setId(unsigned char)                     /work/opensource/personal/microcontroller/arduino/ArduinoLibraries/ArduinoMessagingProtocol/Release/libArduinoMessagingProtocol.a(Message.o)
                                                  /work/opensource/personal/microcontroller/arduino/ArduinoLibraries/ArduinoMessagingProtocol/Release/libArduinoMessagingProtocol.a(MessageParser.o)
Message::setPayload(unsigned char*)               /work/opensource/personal/microcontroller/arduino/ArduinoLibraries/ArduinoMessagingProtocol/Release/libArduinoMessagingProtocol.a(Message.o)
Message::setPayloadSize(unsigned char)            /work/opensource/personal/microcontroller/arduino/ArduinoLibraries/ArduinoMessagingProtocol/Release/libArduinoMessagingProtocol.a(Message.o)
                                                  /work/opensource/personal/microcontroller/arduino/ArduinoLibraries/ArduinoMessagingProtocol/Release/libArduinoMessagingProtocol.a(MessageParser.o)
Message::setType(unsigned char)                   /work/opensource/personal/microcontroller/arduino/ArduinoLibraries/ArduinoMessagingProtocol/Release/libArduinoMessagingProtocol.a(Message.o)
                                                  /work/opensource/personal/microcontroller/arduino/ArduinoLibraries/ArduinoMessagingProtocol/Release/libArduinoMessagingProtocol.a(MessageParser.o)
                                                  /work/opensource/personal/microcontroller/arduino/ArduinoLibraries/ArduinoMessagingProtocol/Release/libArduinoMessagingProtocol.a(RemoteDevice.o)
Message::toRaw(unsigned char*)                    /work/opensource/personal/microcontroller/arduino/ArduinoLibraries/ArduinoMessagingProtocol/Release/libArduinoMessagingProtocol.a(Message.o)
MessageParser::MessageParser(unsigned char*, unsigned short) /work/opensource/personal/microcontroller/arduino/ArduinoLibraries/ArduinoMessagingProtocol/Release/libArduinoMessagingProtocol.a(MessageParser.o)
                                                  ./main.o
MessageParser::MessageParser(unsigned char*, unsigned short) /work/opensource/personal/microcontroller/arduino/ArduinoLibraries/ArduinoMessagingProtocol/Release/libArduinoMessagingProtocol.a(MessageParser.o)
MessageParser::decode(unsigned char)              /work/opensource/personal/microcontroller/arduino/ArduinoLibraries/ArduinoMessagingProtocol/Release/libArduinoMessagingProtocol.a(MessageParser.o)
                                                  /work/opensource/personal/microcontroller/arduino/ArduinoLibraries/ArduinoMessagingProtocol/Release/libArduinoMessagingProtocol.a(RemoteDevice.o)
MessageParser::decodeBytes(unsigned char*, unsigned short) /work/opensource/personal/microcontroller/arduino/ArduinoLibraries/ArduinoMessagingProtocol/Release/libArduinoMessagingProtocol.a(MessageParser.o)
MessageParser::getDecodedMessage(Message*)        /work/opensource/personal/microcontroller/arduino/ArduinoLibraries/ArduinoMessagingProtocol/Release/libArduinoMessagingProtocol.a(MessageParser.o)
                                                  /work/opensource/personal/microcontroller/arduino/ArduinoLibraries/ArduinoMessagingProtocol/Release/libArduinoMessagingProtocol.a(RemoteDevice.o)
MessageParser::getState()                         /work/opensource/personal/microcontroller/arduino/ArduinoLibraries/ArduinoMessagingProtocol/Release/libArduinoMessagingProtocol.a(MessageParser.o)
MessageParser::reset()                            /work/opensource/personal/microcontroller/arduino/ArduinoLibraries/ArduinoMessagingProtocol/Release/libArduinoMessagingProtocol.a(MessageParser.o)
MessageParser::wasMessageDecoded()                /work/opensource/personal/microcontroller/arduino/ArduinoLibraries/ArduinoMessagingProtocol/Release/libArduinoMessagingProtocol.a(MessageParser.o)
Notifier::notifyTransmiting()                     /work/opensource/personal/microcontroller/arduino/ArduinoLibraries/ArduinoMessagingProtocol/Release/libArduinoMessagingProtocol.a(Notifier.o)
                                                  /work/opensource/personal/microcontroller/arduino/ArduinoLibraries/ArduinoMessagingProtocol/Release/libArduinoMessagingProtocol.a(RemoteDevice.o)
Notifier::notifyWaiting()                         /work/opensource/personal/microcontroller/arduino/ArduinoLibraries/ArduinoMessagingProtocol/Release/libArduinoMessagingProtocol.a(Notifier.o)
                                                  /work/opensource/personal/microcontroller/arduino/ArduinoLibraries/ArduinoMessagingProtocol/Release/libArduinoMessagingProtocol.a(RemoteDevice.o)
Notifier::unnotifyTransmiting()                   /work/opensource/personal/microcontroller/arduino/ArduinoLibraries/ArduinoMessagingProtocol/Release/libArduinoMessagingProtocol.a(Notifier.o)
                                                  /work/opensource/personal/microcontroller/arduino/ArduinoLibraries/ArduinoMessagingProtocol/Release/libArduinoMessagingProtocol.a(RemoteDevice.o)
Notifier::unnotifyWaiting()                       /work/opensource/personal/microcontroller/arduino/ArduinoLibraries/ArduinoMessagingProtocol/Release/libArduinoMessagingProtocol.a(Notifier.o)
                                                  /work/opensource/personal/microcontroller/arduino/ArduinoLibraries/ArduinoMessagingProtocol/Release/libArduinoMessagingProtocol.a(RemoteDevice.o)
OutputStream::close()                             /work/opensource/personal/microcontroller/arduino/ArduinoLibraries/ArduinoIO/Release/libArduinoIO.a(OutputStream.o)
                                                  /work/opensource/personal/microcontroller/arduino/ArduinoLibraries/ArduinoIO/Release/libArduinoIO.a(ByteArrayOutputStream.o)
                                                  /work/opensource/personal/microcontroller/arduino/ArduinoLibraries/ArduinoIO/Release/libArduinoIO.a(ExternalEepromOutputStream.o)
                                                  /work/opensource/personal/microcontroller/arduino/ArduinoLibraries/ArduinoIO/Release/libArduinoIO.a(SoftwareSerialOutputStream.o)
OutputStream::flush()                             /work/opensource/personal/microcontroller/arduino/ArduinoLibraries/ArduinoIO/Release/libArduinoIO.a(OutputStream.o)
                                                  /work/opensource/personal/microcontroller/arduino/ArduinoLibraries/ArduinoIO/Release/libArduinoIO.a(ByteArrayOutputStream.o)
                                                  /work/opensource/personal/microcontroller/arduino/ArduinoLibraries/ArduinoIO/Release/libArduinoIO.a(ExternalEepromOutputStream.o)
                                                  /work/opensource/personal/microcontroller/arduino/ArduinoLibraries/ArduinoIO/Release/libArduinoIO.a(SoftwareSerialOutputStream.o)
OutputStream::mark()                              /work/opensource/personal/microcontroller/arduino/ArduinoLibraries/ArduinoIO/Release/libArduinoIO.a(OutputStream.o)
                                                  /work/opensource/personal/microcontroller/arduino/ArduinoLibraries/ArduinoIO/Release/libArduinoIO.a(ByteArrayOutputStream.o)
                                                  /work/opensource/personal/microcontroller/arduino/ArduinoLibraries/ArduinoIO/Release/libArduinoIO.a(ExternalEepromOutputStream.o)
                                                  /work/opensource/personal/microcontroller/arduino/ArduinoLibraries/ArduinoIO/Release/libArduinoIO.a(SoftwareSerialOutputStream.o)
OutputStream::markSupported()                     /work/opensource/personal/microcontroller/arduino/ArduinoLibraries/ArduinoIO/Release/libArduinoIO.a(OutputStream.o)
                                                  /work/opensource/personal/microcontroller/arduino/ArduinoLibraries/ArduinoIO/Release/libArduinoIO.a(ByteArrayOutputStream.o)
                                                  /work/opensource/personal/microcontroller/arduino/ArduinoLibraries/ArduinoIO/Release/libArduinoIO.a(ExternalEepromOutputStream.o)
                                                  /work/opensource/personal/microcontroller/arduino/ArduinoLibraries/ArduinoIO/Release/libArduinoIO.a(SoftwareSerialOutputStream.o)
OutputStream::reset()                             /work/opensource/personal/microcontroller/arduino/ArduinoLibraries/ArduinoIO/Release/libArduinoIO.a(OutputStream.o)
                                                  /work/opensource/personal/microcontroller/arduino/ArduinoLibraries/ArduinoIO/Release/libArduinoIO.a(ByteArrayOutputStream.o)
                                                  /work/opensource/personal/microcontroller/arduino/ArduinoLibraries/ArduinoIO/Release/libArduinoIO.a(ExternalEepromOutputStream.o)
                                                  /work/opensource/personal/microcontroller/arduino/ArduinoLibraries/ArduinoIO/Release/libArduinoIO.a(SoftwareSerialOutputStream.o)
OutputStream::write(unsigned char*, int)          /work/opensource/personal/microcontroller/arduino/ArduinoLibraries/ArduinoIO/Release/libArduinoIO.a(OutputStream.o)
                                                  /work/opensource/personal/microcontroller/arduino/ArduinoLibraries/ArduinoIO/Release/libArduinoIO.a(ByteArrayOutputStream.o)
                                                  /work/opensource/personal/microcontroller/arduino/ArduinoLibraries/ArduinoIO/Release/libArduinoIO.a(ExternalEepromOutputStream.o)
                                                  /work/opensource/personal/microcontroller/arduino/ArduinoLibraries/ArduinoIO/Release/libArduinoIO.a(SoftwareSerialOutputStream.o)
OutputStream::write(unsigned char*, int, int)     /work/opensource/personal/microcontroller/arduino/ArduinoLibraries/ArduinoIO/Release/libArduinoIO.a(OutputStream.o)
                                                  /work/opensource/personal/microcontroller/arduino/ArduinoLibraries/ArduinoIO/Release/libArduinoIO.a(ByteArrayOutputStream.o)
                                                  /work/opensource/personal/microcontroller/arduino/ArduinoLibraries/ArduinoIO/Release/libArduinoIO.a(ExternalEepromOutputStream.o)
                                                  /work/opensource/personal/microcontroller/arduino/ArduinoLibraries/ArduinoIO/Release/libArduinoIO.a(SoftwareSerialOutputStream.o)
Print::print(Printable const&)                    /work/opensource/personal/microcontroller/arduino/ArduinoLibraries/ArduinoCore/Release/libArduinoCore.a(Print.o)
Print::print(String const&)                       /work/opensource/personal/microcontroller/arduino/ArduinoLibraries/ArduinoCore/Release/libArduinoCore.a(Print.o)
Print::print(__FlashStringHelper const*)          /work/opensource/personal/microcontroller/arduino/ArduinoLibraries/ArduinoCore/Release/libArduinoCore.a(Print.o)
Print::print(char const*)                         /work/opensource/personal/microcontroller/arduino/ArduinoLibraries/ArduinoCore/Release/libArduinoCore.a(Print.o)
                                                  ./main.o
Print::print(char)                                /work/opensource/personal/microcontroller/arduino/ArduinoLibraries/ArduinoCore/Release/libArduinoCore.a(Print.o)
Print::print(double, int)                         /work/opensource/personal/microcontroller/arduino/ArduinoLibraries/ArduinoCore/Release/libArduinoCore.a(Print.o)
Print::print(int, int)                            /work/opensource/personal/microcontroller/arduino/ArduinoLibraries/ArduinoCore/Release/libArduinoCore.a(Print.o)
Print::print(long, int)                           /work/opensource/personal/microcontroller/arduino/ArduinoLibraries/ArduinoCore/Release/libArduinoCore.a(Print.o)
Print::print(unsigned char, int)                  /work/opensource/personal/microcontroller/arduino/ArduinoLibraries/ArduinoCore/Release/libArduinoCore.a(Print.o)
Print::print(unsigned int, int)                   /work/opensource/personal/microcontroller/arduino/ArduinoLibraries/ArduinoCore/Release/libArduinoCore.a(Print.o)
Print::print(unsigned long, int)                  /work/opensource/personal/microcontroller/arduino/ArduinoLibraries/ArduinoCore/Release/libArduinoCore.a(Print.o)
Print::printFloat(double, unsigned char)          /work/opensource/personal/microcontroller/arduino/ArduinoLibraries/ArduinoCore/Release/libArduinoCore.a(Print.o)
Print::printNumber(unsigned long, unsigned char)  /work/opensource/personal/microcontroller/arduino/ArduinoLibraries/ArduinoCore/Release/libArduinoCore.a(Print.o)
Print::println()                                  /work/opensource/personal/microcontroller/arduino/ArduinoLibraries/ArduinoCore/Release/libArduinoCore.a(Print.o)
Print::println(Printable const&)                  /work/opensource/personal/microcontroller/arduino/ArduinoLibraries/ArduinoCore/Release/libArduinoCore.a(Print.o)
Print::println(String const&)                     /work/opensource/personal/microcontroller/arduino/ArduinoLibraries/ArduinoCore/Release/libArduinoCore.a(Print.o)
Print::println(__FlashStringHelper const*)        /work/opensource/personal/microcontroller/arduino/ArduinoLibraries/ArduinoCore/Release/libArduinoCore.a(Print.o)
Print::println(char const*)                       /work/opensource/personal/microcontroller/arduino/ArduinoLibraries/ArduinoCore/Release/libArduinoCore.a(Print.o)
                                                  ./main.o
Print::println(char)                              /work/opensource/personal/microcontroller/arduino/ArduinoLibraries/ArduinoCore/Release/libArduinoCore.a(Print.o)
Print::println(double, int)                       /work/opensource/personal/microcontroller/arduino/ArduinoLibraries/ArduinoCore/Release/libArduinoCore.a(Print.o)
Print::println(int, int)                          /work/opensource/personal/microcontroller/arduino/ArduinoLibraries/ArduinoCore/Release/libArduinoCore.a(Print.o)
                                                  /work/opensource/personal/microcontroller/arduino/ArduinoLibraries/ArduinoDevice/Release/libArduinoDevice.a(RegisterBasedWiredDevice.o)
Print::println(long, int)                         /work/opensource/personal/microcontroller/arduino/ArduinoLibraries/ArduinoCore/Release/libArduinoCore.a(Print.o)
Print::println(unsigned char, int)                /work/opensource/personal/microcontroller/arduino/ArduinoLibraries/ArduinoCore/Release/libArduinoCore.a(Print.o)
                                                  ./main.o
Print::println(unsigned int, int)                 /work/opensource/personal/microcontroller/arduino/ArduinoLibraries/ArduinoCore/Release/libArduinoCore.a(Print.o)
Print::println(unsigned long, int)                /work/opensource/personal/microcontroller/arduino/ArduinoLibraries/ArduinoCore/Release/libArduinoCore.a(Print.o)
Print::write(char const*)                         /work/opensource/personal/microcontroller/arduino/ArduinoLibraries/ArduinoCore/Release/libArduinoCore.a(Print.o)
Print::write(unsigned char const*, unsigned int)  /work/opensource/personal/microcontroller/arduino/ArduinoLibraries/ArduinoCore/Release/libArduinoCore.a(Print.o)
                                                  /work/opensource/personal/microcontroller/arduino/ArduinoLibraries/ArduinoCore/Release/libArduinoCore.a(HardwareSerial.o)
                                                  /work/opensource/personal/microcontroller/arduino/ArduinoLibraries/ArduinoCore/Release/libArduinoCore.a(SoftwareSerial.o)
                                                  /work/opensource/personal/microcontroller/arduino/ArduinoLibraries/ArduinoCore/Release/libArduinoCore.a(Wire.o)
RegisterBasedWiredDevice::RegisterBasedWiredDevice(unsigned char) /work/opensource/personal/microcontroller/arduino/ArduinoLibraries/ArduinoDevice/Release/libArduinoDevice.a(RegisterBasedWiredDevice.o)
                                                  /work/opensource/personal/microcontroller/arduino/ArduinoLibraries/ArduinoAccelerometerDriver/Release/libArduinoAccelerometerSensor.a(AccelerometerMMA8451.o)
RegisterBasedWiredDevice::RegisterBasedWiredDevice(unsigned char) /work/opensource/personal/microcontroller/arduino/ArduinoLibraries/ArduinoDevice/Release/libArduinoDevice.a(RegisterBasedWiredDevice.o)
RegisterBasedWiredDevice::configureRegisterBits(unsigned char, unsigned char, unsigned char) /work/opensource/personal/microcontroller/arduino/ArduinoLibraries/ArduinoDevice/Release/libArduinoDevice.a(RegisterBasedWiredDevice.o)
                                                  /work/opensource/personal/microcontroller/arduino/ArduinoLibraries/ArduinoAccelerometerDriver/Release/libArduinoAccelerometerSensor.a(AccelerometerMMA8451.o)
RegisterBasedWiredDevice::readRegister(unsigned char) /work/opensource/personal/microcontroller/arduino/ArduinoLibraries/ArduinoDevice/Release/libArduinoDevice.a(RegisterBasedWiredDevice.o)
                                                  /work/opensource/personal/microcontroller/arduino/ArduinoLibraries/ArduinoAccelerometerDriver/Release/libArduinoAccelerometerSensor.a(AccelerometerMMA8451.o)
                                                  ./main.o
RegisterBasedWiredDevice::readRegisterBlock(unsigned char, unsigned char*, unsigned char) /work/opensource/personal/microcontroller/arduino/ArduinoLibraries/ArduinoDevice/Release/libArduinoDevice.a(RegisterBasedWiredDevice.o)
                                                  /work/opensource/personal/microcontroller/arduino/ArduinoLibraries/ArduinoAccelerometerDriver/Release/libArduinoAccelerometerSensor.a(AccelerometerMMA8451.o)
RegisterBasedWiredDevice::writeRegister(unsigned char, unsigned char) /work/opensource/personal/microcontroller/arduino/ArduinoLibraries/ArduinoDevice/Release/libArduinoDevice.a(RegisterBasedWiredDevice.o)
                                                  /work/opensource/personal/microcontroller/arduino/ArduinoLibraries/ArduinoAccelerometerDriver/Release/libArduinoAccelerometerSensor.a(AccelerometerMMA8451.o)
RegisterBasedWiredDevice::writeRegisterBlock(unsigned char, unsigned char*, unsigned char) /work/opensource/personal/microcontroller/arduino/ArduinoLibraries/ArduinoDevice/Release/libArduinoDevice.a(RegisterBasedWiredDevice.o)
RemoteDevice::RemoteDevice(MessageParser*, Message*, OutputStream*, InputStream*) /work/opensource/personal/microcontroller/arduino/ArduinoLibraries/ArduinoMessagingProtocol/Release/libArduinoMessagingProtocol.a(RemoteDevice.o)
                                                  ./main.o
RemoteDevice::RemoteDevice(MessageParser*, Message*, OutputStream*, InputStream*) /work/opensource/personal/microcontroller/arduino/ArduinoLibraries/ArduinoMessagingProtocol/Release/libArduinoMessagingProtocol.a(RemoteDevice.o)
RemoteDevice::connect(unsigned long)              /work/opensource/personal/microcontroller/arduino/ArduinoLibraries/ArduinoMessagingProtocol/Release/libArduinoMessagingProtocol.a(RemoteDevice.o)
                                                  ./main.o
RemoteDevice::isConnected(unsigned long)          /work/opensource/personal/microcontroller/arduino/ArduinoLibraries/ArduinoMessagingProtocol/Release/libArduinoMessagingProtocol.a(RemoteDevice.o)
RemoteDevice::receiveMessage(Message*)            /work/opensource/personal/microcontroller/arduino/ArduinoLibraries/ArduinoMessagingProtocol/Release/libArduinoMessagingProtocol.a(RemoteDevice.o)
                                                  ./main.o
RemoteDevice::transmitMessage(Message*)           /work/opensource/personal/microcontroller/arduino/ArduinoLibraries/ArduinoMessagingProtocol/Release/libArduinoMessagingProtocol.a(RemoteDevice.o)
RemoteDevice::transmitWaitingForMessageType(Message*, Message::Type, unsigned long) /work/opensource/personal/microcontroller/arduino/ArduinoLibraries/ArduinoMessagingProtocol/Release/libArduinoMessagingProtocol.a(RemoteDevice.o)
RemoteDevice::waitForMessageType(Message::Type, unsigned long) /work/opensource/personal/microcontroller/arduino/ArduinoLibraries/ArduinoMessagingProtocol/Release/libArduinoMessagingProtocol.a(RemoteDevice.o)
RemoteDevice::~RemoteDevice()                     /work/opensource/personal/microcontroller/arduino/ArduinoLibraries/ArduinoMessagingProtocol/Release/libArduinoMessagingProtocol.a(RemoteDevice.o)
RemoteDevice::~RemoteDevice()                     /work/opensource/personal/microcontroller/arduino/ArduinoLibraries/ArduinoMessagingProtocol/Release/libArduinoMessagingProtocol.a(RemoteDevice.o)
                                                  ./main.o
RemoteDevice::~RemoteDevice()                     /work/opensource/personal/microcontroller/arduino/ArduinoLibraries/ArduinoMessagingProtocol/Release/libArduinoMessagingProtocol.a(RemoteDevice.o)
SeekableOutputStream::SeekableOutputStream()      /work/opensource/personal/microcontroller/arduino/ArduinoLibraries/ArduinoIO/Release/libArduinoIO.a(ExternalEepromOutputStream.o)
                                                  /work/opensource/personal/microcontroller/arduino/ArduinoLibraries/ArduinoIO/Release/libArduinoIO.a(ByteArrayOutputStream.o)
Serial                                            /work/opensource/personal/microcontroller/arduino/ArduinoLibraries/ArduinoCore/Release/libArduinoCore.a(HardwareSerial0.o)
                                                  /work/opensource/personal/microcontroller/arduino/ArduinoLibraries/ArduinoDevice/Release/libArduinoDevice.a(RegisterBasedWiredDevice.o)
                                                  ./main.o
Serial0_available()                               /work/opensource/personal/microcontroller/arduino/ArduinoLibraries/ArduinoCore/Release/libArduinoCore.a(HardwareSerial0.o)
                                                  /work/opensource/personal/microcontroller/arduino/ArduinoLibraries/ArduinoCore/Release/libArduinoCore.a(HardwareSerial.o)
Settings::Settings(SeekableOutputStream*, SeekableInputStream*) ./Settings/Settings.o
Settings::Settings(SeekableOutputStream*, SeekableInputStream*) ./Settings/Settings.o
                                                  ./main.o
Settings::getDebounceCounter()                    ./Settings/Settings.o
Settings::getHysteresis()                         ./Settings/Settings.o
Settings::getMinInterval()                        ./Settings/Settings.o
Settings::getMinIntervalInMillis()                ./Settings/Settings.o
Settings::getThreshold()                          ./Settings/Settings.o
Settings::getTripAngleThreshold()                 ./Settings/Settings.o
Settings::getZLockAngle()                         ./Settings/Settings.o
Settings::load()                                  ./Settings/Settings.o
                                                  ./main.o
Settings::save()                                  ./Settings/Settings.o
Settings::update(unsigned char, unsigned char)    ./Settings/Settings.o
                                                  ./main.o
SoftwareSerial::SoftwareSerial(unsigned char, unsigned char, bool) /work/opensource/personal/microcontroller/arduino/ArduinoLibraries/ArduinoCore/Release/libArduinoCore.a(SoftwareSerial.o)
SoftwareSerial::SoftwareSerial(unsigned char, unsigned char, bool) /work/opensource/personal/microcontroller/arduino/ArduinoLibraries/ArduinoCore/Release/libArduinoCore.a(SoftwareSerial.o)
                                                  ./main.o
SoftwareSerial::_receive_buffer                   /work/opensource/personal/microcontroller/arduino/ArduinoLibraries/ArduinoCore/Release/libArduinoCore.a(SoftwareSerial.o)
SoftwareSerial::_receive_buffer_head              /work/opensource/personal/microcontroller/arduino/ArduinoLibraries/ArduinoCore/Release/libArduinoCore.a(SoftwareSerial.o)
SoftwareSerial::_receive_buffer_tail              /work/opensource/personal/microcontroller/arduino/ArduinoLibraries/ArduinoCore/Release/libArduinoCore.a(SoftwareSerial.o)
SoftwareSerial::active_object                     /work/opensource/personal/microcontroller/arduino/ArduinoLibraries/ArduinoCore/Release/libArduinoCore.a(SoftwareSerial.o)
SoftwareSerial::available()                       /work/opensource/personal/microcontroller/arduino/ArduinoLibraries/ArduinoCore/Release/libArduinoCore.a(SoftwareSerial.o)
SoftwareSerial::begin(long)                       /work/opensource/personal/microcontroller/arduino/ArduinoLibraries/ArduinoCore/Release/libArduinoCore.a(SoftwareSerial.o)
SoftwareSerial::end()                             /work/opensource/personal/microcontroller/arduino/ArduinoLibraries/ArduinoCore/Release/libArduinoCore.a(SoftwareSerial.o)
SoftwareSerial::flush()                           /work/opensource/personal/microcontroller/arduino/ArduinoLibraries/ArduinoCore/Release/libArduinoCore.a(SoftwareSerial.o)
SoftwareSerial::listen()                          /work/opensource/personal/microcontroller/arduino/ArduinoLibraries/ArduinoCore/Release/libArduinoCore.a(SoftwareSerial.o)
SoftwareSerial::peek()                            /work/opensource/personal/microcontroller/arduino/ArduinoLibraries/ArduinoCore/Release/libArduinoCore.a(SoftwareSerial.o)
SoftwareSerial::read()                            /work/opensource/personal/microcontroller/arduino/ArduinoLibraries/ArduinoCore/Release/libArduinoCore.a(SoftwareSerial.o)
SoftwareSerial::rx_pin_read()                     /work/opensource/personal/microcontroller/arduino/ArduinoLibraries/ArduinoCore/Release/libArduinoCore.a(SoftwareSerial.o)
SoftwareSerial::setRX(unsigned char)              /work/opensource/personal/microcontroller/arduino/ArduinoLibraries/ArduinoCore/Release/libArduinoCore.a(SoftwareSerial.o)
SoftwareSerial::setTX(unsigned char)              /work/opensource/personal/microcontroller/arduino/ArduinoLibraries/ArduinoCore/Release/libArduinoCore.a(SoftwareSerial.o)
SoftwareSerial::stopListening()                   /work/opensource/personal/microcontroller/arduino/ArduinoLibraries/ArduinoCore/Release/libArduinoCore.a(SoftwareSerial.o)
SoftwareSerial::subtract_cap(unsigned int, unsigned int) /work/opensource/personal/microcontroller/arduino/ArduinoLibraries/ArduinoCore/Release/libArduinoCore.a(SoftwareSerial.o)
SoftwareSerial::write(unsigned char)              /work/opensource/personal/microcontroller/arduino/ArduinoLibraries/ArduinoCore/Release/libArduinoCore.a(SoftwareSerial.o)
SoftwareSerial::~SoftwareSerial()                 /work/opensource/personal/microcontroller/arduino/ArduinoLibraries/ArduinoCore/Release/libArduinoCore.a(SoftwareSerial.o)
SoftwareSerial::~SoftwareSerial()                 /work/opensource/personal/microcontroller/arduino/ArduinoLibraries/ArduinoCore/Release/libArduinoCore.a(SoftwareSerial.o)
                                                  ./main.o
SoftwareSerialInputStream::SoftwareSerialInputStream(SoftwareSerial*) /work/opensource/personal/microcontroller/arduino/ArduinoLibraries/ArduinoIO/Release/libArduinoIO.a(SoftwareSerialInputStream.o)
SoftwareSerialInputStream::SoftwareSerialInputStream(SoftwareSerial*) /work/opensource/personal/microcontroller/arduino/ArduinoLibraries/ArduinoIO/Release/libArduinoIO.a(SoftwareSerialInputStream.o)
                                                  ./main.o
SoftwareSerialInputStream::available()            /work/opensource/personal/microcontroller/arduino/ArduinoLibraries/ArduinoIO/Release/libArduinoIO.a(SoftwareSerialInputStream.o)
SoftwareSerialInputStream::read()                 /work/opensource/personal/microcontroller/arduino/ArduinoLibraries/ArduinoIO/Release/libArduinoIO.a(SoftwareSerialInputStream.o)
SoftwareSerialInputStream::read(unsigned char*, int, int) /work/opensource/personal/microcontroller/arduino/ArduinoLibraries/ArduinoIO/Release/libArduinoIO.a(SoftwareSerialInputStream.o)
SoftwareSerialOutputStream::SoftwareSerialOutputStream(SoftwareSerial*) /work/opensource/personal/microcontroller/arduino/ArduinoLibraries/ArduinoIO/Release/libArduinoIO.a(SoftwareSerialOutputStream.o)
                                                  ./main.o
SoftwareSerialOutputStream::SoftwareSerialOutputStream(SoftwareSerial*) /work/opensource/personal/microcontroller/arduino/ArduinoLibraries/ArduinoIO/Release/libArduinoIO.a(SoftwareSerialOutputStream.o)
SoftwareSerialOutputStream::write(unsigned char)  /work/opensource/personal/microcontroller/arduino/ArduinoLibraries/ArduinoIO/Release/libArduinoIO.a(SoftwareSerialOutputStream.o)
SoftwareSerialOutputStream::write(unsigned char*, int, int) /work/opensource/personal/microcontroller/arduino/ArduinoLibraries/ArduinoIO/Release/libArduinoIO.a(SoftwareSerialOutputStream.o)
Stream::find(char*)                               /work/opensource/personal/microcontroller/arduino/ArduinoLibraries/ArduinoCore/Release/libArduinoCore.a(Stream.o)
Stream::find(char*, unsigned int)                 /work/opensource/personal/microcontroller/arduino/ArduinoLibraries/ArduinoCore/Release/libArduinoCore.a(Stream.o)
Stream::findMulti(Stream::MultiTarget*, int)      /work/opensource/personal/microcontroller/arduino/ArduinoLibraries/ArduinoCore/Release/libArduinoCore.a(Stream.o)
Stream::findUntil(char*, char*)                   /work/opensource/personal/microcontroller/arduino/ArduinoLibraries/ArduinoCore/Release/libArduinoCore.a(Stream.o)
Stream::findUntil(char*, unsigned int, char*, unsigned int) /work/opensource/personal/microcontroller/arduino/ArduinoLibraries/ArduinoCore/Release/libArduinoCore.a(Stream.o)
Stream::parseFloat(LookaheadMode, char)           /work/opensource/personal/microcontroller/arduino/ArduinoLibraries/ArduinoCore/Release/libArduinoCore.a(Stream.o)
Stream::parseInt(LookaheadMode, char)             /work/opensource/personal/microcontroller/arduino/ArduinoLibraries/ArduinoCore/Release/libArduinoCore.a(Stream.o)
Stream::peekNextDigit(LookaheadMode, bool)        /work/opensource/personal/microcontroller/arduino/ArduinoLibraries/ArduinoCore/Release/libArduinoCore.a(Stream.o)
Stream::readBytes(char*, unsigned int)            /work/opensource/personal/microcontroller/arduino/ArduinoLibraries/ArduinoCore/Release/libArduinoCore.a(Stream.o)
                                                  /work/opensource/personal/microcontroller/arduino/ArduinoLibraries/ArduinoIO/Release/libArduinoIO.a(SoftwareSerialInputStream.o)
Stream::readBytesUntil(char, char*, unsigned int) /work/opensource/personal/microcontroller/arduino/ArduinoLibraries/ArduinoCore/Release/libArduinoCore.a(Stream.o)
Stream::readString()                              /work/opensource/personal/microcontroller/arduino/ArduinoLibraries/ArduinoCore/Release/libArduinoCore.a(Stream.o)
Stream::readStringUntil(char)                     /work/opensource/personal/microcontroller/arduino/ArduinoLibraries/ArduinoCore/Release/libArduinoCore.a(Stream.o)
Stream::setTimeout(unsigned long)                 /work/opensource/personal/microcontroller/arduino/ArduinoLibraries/ArduinoCore/Release/libArduinoCore.a(Stream.o)
Stream::timedPeek()                               /work/opensource/personal/microcontroller/arduino/ArduinoLibraries/ArduinoCore/Release/libArduinoCore.a(Stream.o)
Stream::timedRead()                               /work/opensource/personal/microcontroller/arduino/ArduinoLibraries/ArduinoCore/Release/libArduinoCore.a(Stream.o)
String::String(String const&)                     /work/opensource/personal/microcontroller/arduino/ArduinoLibraries/ArduinoCore/Release/libArduinoCore.a(WString.o)
String::String(String const&)                     /work/opensource/personal/microcontroller/arduino/ArduinoLibraries/ArduinoCore/Release/libArduinoCore.a(WString.o)
String::String(__FlashStringHelper const*)        /work/opensource/personal/microcontroller/arduino/ArduinoLibraries/ArduinoCore/Release/libArduinoCore.a(WString.o)
String::String(__FlashStringHelper const*)        /work/opensource/personal/microcontroller/arduino/ArduinoLibraries/ArduinoCore/Release/libArduinoCore.a(WString.o)
String::String(char const*)                       /work/opensource/personal/microcontroller/arduino/ArduinoLibraries/ArduinoCore/Release/libArduinoCore.a(WString.o)
                                                  /work/opensource/personal/microcontroller/arduino/ArduinoLibraries/ArduinoCore/Release/libArduinoCore.a(Stream.o)
String::String(char const*)                       /work/opensource/personal/microcontroller/arduino/ArduinoLibraries/ArduinoCore/Release/libArduinoCore.a(WString.o)
String::String(char)                              /work/opensource/personal/microcontroller/arduino/ArduinoLibraries/ArduinoCore/Release/libArduinoCore.a(WString.o)
String::String(char)                              /work/opensource/personal/microcontroller/arduino/ArduinoLibraries/ArduinoCore/Release/libArduinoCore.a(WString.o)
String::String(double, unsigned char)             /work/opensource/personal/microcontroller/arduino/ArduinoLibraries/ArduinoCore/Release/libArduinoCore.a(WString.o)
String::String(double, unsigned char)             /work/opensource/personal/microcontroller/arduino/ArduinoLibraries/ArduinoCore/Release/libArduinoCore.a(WString.o)
String::String(float, unsigned char)              /work/opensource/personal/microcontroller/arduino/ArduinoLibraries/ArduinoCore/Release/libArduinoCore.a(WString.o)
String::String(float, unsigned char)              /work/opensource/personal/microcontroller/arduino/ArduinoLibraries/ArduinoCore/Release/libArduinoCore.a(WString.o)
String::String(int, unsigned char)                /work/opensource/personal/microcontroller/arduino/ArduinoLibraries/ArduinoCore/Release/libArduinoCore.a(WString.o)
String::String(int, unsigned char)                /work/opensource/personal/microcontroller/arduino/ArduinoLibraries/ArduinoCore/Release/libArduinoCore.a(WString.o)
String::String(long, unsigned char)               /work/opensource/personal/microcontroller/arduino/ArduinoLibraries/ArduinoCore/Release/libArduinoCore.a(WString.o)
String::String(long, unsigned char)               /work/opensource/personal/microcontroller/arduino/ArduinoLibraries/ArduinoCore/Release/libArduinoCore.a(WString.o)
String::String(unsigned char, unsigned char)      /work/opensource/personal/microcontroller/arduino/ArduinoLibraries/ArduinoCore/Release/libArduinoCore.a(WString.o)
String::String(unsigned char, unsigned char)      /work/opensource/personal/microcontroller/arduino/ArduinoLibraries/ArduinoCore/Release/libArduinoCore.a(WString.o)
String::String(unsigned int, unsigned char)       /work/opensource/personal/microcontroller/arduino/ArduinoLibraries/ArduinoCore/Release/libArduinoCore.a(WString.o)
String::String(unsigned int, unsigned char)       /work/opensource/personal/microcontroller/arduino/ArduinoLibraries/ArduinoCore/Release/libArduinoCore.a(WString.o)
String::String(unsigned long, unsigned char)      /work/opensource/personal/microcontroller/arduino/ArduinoLibraries/ArduinoCore/Release/libArduinoCore.a(WString.o)
String::String(unsigned long, unsigned char)      /work/opensource/personal/microcontroller/arduino/ArduinoLibraries/ArduinoCore/Release/libArduinoCore.a(WString.o)
String::changeBuffer(unsigned int)                /work/opensource/personal/microcontroller/arduino/ArduinoLibraries/ArduinoCore/Release/libArduinoCore.a(WString.o)
String::charAt(unsigned int) const                /work/opensource/personal/microcontroller/arduino/ArduinoLibraries/ArduinoCore/Release/libArduinoCore.a(WString.o)
String::compareTo(String const&) const            /work/opensource/personal/microcontroller/arduino/ArduinoLibraries/ArduinoCore/Release/libArduinoCore.a(WString.o)
String::concat(String const&)                     /work/opensource/personal/microcontroller/arduino/ArduinoLibraries/ArduinoCore/Release/libArduinoCore.a(WString.o)
String::concat(__FlashStringHelper const*)        /work/opensource/personal/microcontroller/arduino/ArduinoLibraries/ArduinoCore/Release/libArduinoCore.a(WString.o)
String::concat(char const*)                       /work/opensource/personal/microcontroller/arduino/ArduinoLibraries/ArduinoCore/Release/libArduinoCore.a(WString.o)
String::concat(char const*, unsigned int)         /work/opensource/personal/microcontroller/arduino/ArduinoLibraries/ArduinoCore/Release/libArduinoCore.a(WString.o)
String::concat(char)                              /work/opensource/personal/microcontroller/arduino/ArduinoLibraries/ArduinoCore/Release/libArduinoCore.a(WString.o)
                                                  /work/opensource/personal/microcontroller/arduino/ArduinoLibraries/ArduinoCore/Release/libArduinoCore.a(Stream.o)
String::concat(double)                            /work/opensource/personal/microcontroller/arduino/ArduinoLibraries/ArduinoCore/Release/libArduinoCore.a(WString.o)
String::concat(float)                             /work/opensource/personal/microcontroller/arduino/ArduinoLibraries/ArduinoCore/Release/libArduinoCore.a(WString.o)
String::concat(int)                               /work/opensource/personal/microcontroller/arduino/ArduinoLibraries/ArduinoCore/Release/libArduinoCore.a(WString.o)
String::concat(long)                              /work/opensource/personal/microcontroller/arduino/ArduinoLibraries/ArduinoCore/Release/libArduinoCore.a(WString.o)
String::concat(unsigned char)                     /work/opensource/personal/microcontroller/arduino/ArduinoLibraries/ArduinoCore/Release/libArduinoCore.a(WString.o)
String::concat(unsigned int)                      /work/opensource/personal/microcontroller/arduino/ArduinoLibraries/ArduinoCore/Release/libArduinoCore.a(WString.o)
String::concat(unsigned long)                     /work/opensource/personal/microcontroller/arduino/ArduinoLibraries/ArduinoCore/Release/libArduinoCore.a(WString.o)
String::copy(__FlashStringHelper const*, unsigned int) /work/opensource/personal/microcontroller/arduino/ArduinoLibraries/ArduinoCore/Release/libArduinoCore.a(WString.o)
String::copy(char const*, unsigned int)           /work/opensource/personal/microcontroller/arduino/ArduinoLibraries/ArduinoCore/Release/libArduinoCore.a(WString.o)
String::endsWith(String const&) const             /work/opensource/personal/microcontroller/arduino/ArduinoLibraries/ArduinoCore/Release/libArduinoCore.a(WString.o)
String::equals(String const&) const               /work/opensource/personal/microcontroller/arduino/ArduinoLibraries/ArduinoCore/Release/libArduinoCore.a(WString.o)
String::equals(char const*) const                 /work/opensource/personal/microcontroller/arduino/ArduinoLibraries/ArduinoCore/Release/libArduinoCore.a(WString.o)
String::equalsIgnoreCase(String const&) const     /work/opensource/personal/microcontroller/arduino/ArduinoLibraries/ArduinoCore/Release/libArduinoCore.a(WString.o)
String::getBytes(unsigned char*, unsigned int, unsigned int) const /work/opensource/personal/microcontroller/arduino/ArduinoLibraries/ArduinoCore/Release/libArduinoCore.a(WString.o)
String::indexOf(String const&) const              /work/opensource/personal/microcontroller/arduino/ArduinoLibraries/ArduinoCore/Release/libArduinoCore.a(WString.o)
String::indexOf(String const&, unsigned int) const /work/opensource/personal/microcontroller/arduino/ArduinoLibraries/ArduinoCore/Release/libArduinoCore.a(WString.o)
String::indexOf(char) const                       /work/opensource/personal/microcontroller/arduino/ArduinoLibraries/ArduinoCore/Release/libArduinoCore.a(WString.o)
String::indexOf(char, unsigned int) const         /work/opensource/personal/microcontroller/arduino/ArduinoLibraries/ArduinoCore/Release/libArduinoCore.a(WString.o)
String::invalidate()                              /work/opensource/personal/microcontroller/arduino/ArduinoLibraries/ArduinoCore/Release/libArduinoCore.a(WString.o)
String::lastIndexOf(String const&) const          /work/opensource/personal/microcontroller/arduino/ArduinoLibraries/ArduinoCore/Release/libArduinoCore.a(WString.o)
String::lastIndexOf(String const&, unsigned int) const /work/opensource/personal/microcontroller/arduino/ArduinoLibraries/ArduinoCore/Release/libArduinoCore.a(WString.o)
String::lastIndexOf(char) const                   /work/opensource/personal/microcontroller/arduino/ArduinoLibraries/ArduinoCore/Release/libArduinoCore.a(WString.o)
String::lastIndexOf(char, unsigned int) const     /work/opensource/personal/microcontroller/arduino/ArduinoLibraries/ArduinoCore/Release/libArduinoCore.a(WString.o)
String::operator<(String const&) const            /work/opensource/personal/microcontroller/arduino/ArduinoLibraries/ArduinoCore/Release/libArduinoCore.a(WString.o)
String::operator<=(String const&) const           /work/opensource/personal/microcontroller/arduino/ArduinoLibraries/ArduinoCore/Release/libArduinoCore.a(WString.o)
String::operator=(String const&)                  /work/opensource/personal/microcontroller/arduino/ArduinoLibraries/ArduinoCore/Release/libArduinoCore.a(WString.o)
String::operator=(__FlashStringHelper const*)     /work/opensource/personal/microcontroller/arduino/ArduinoLibraries/ArduinoCore/Release/libArduinoCore.a(WString.o)
String::operator=(char const*)                    /work/opensource/personal/microcontroller/arduino/ArduinoLibraries/ArduinoCore/Release/libArduinoCore.a(WString.o)
String::operator>(String const&) const            /work/opensource/personal/microcontroller/arduino/ArduinoLibraries/ArduinoCore/Release/libArduinoCore.a(WString.o)
String::operator>=(String const&) const           /work/opensource/personal/microcontroller/arduino/ArduinoLibraries/ArduinoCore/Release/libArduinoCore.a(WString.o)
String::operator[](unsigned int)                  /work/opensource/personal/microcontroller/arduino/ArduinoLibraries/ArduinoCore/Release/libArduinoCore.a(WString.o)
String::operator[](unsigned int) const            /work/opensource/personal/microcontroller/arduino/ArduinoLibraries/ArduinoCore/Release/libArduinoCore.a(WString.o)
String::remove(unsigned int)                      /work/opensource/personal/microcontroller/arduino/ArduinoLibraries/ArduinoCore/Release/libArduinoCore.a(WString.o)
String::remove(unsigned int, unsigned int)        /work/opensource/personal/microcontroller/arduino/ArduinoLibraries/ArduinoCore/Release/libArduinoCore.a(WString.o)
String::replace(String const&, String const&)     /work/opensource/personal/microcontroller/arduino/ArduinoLibraries/ArduinoCore/Release/libArduinoCore.a(WString.o)
String::replace(char, char)                       /work/opensource/personal/microcontroller/arduino/ArduinoLibraries/ArduinoCore/Release/libArduinoCore.a(WString.o)
String::reserve(unsigned int)                     /work/opensource/personal/microcontroller/arduino/ArduinoLibraries/ArduinoCore/Release/libArduinoCore.a(WString.o)
String::setCharAt(unsigned int, char)             /work/opensource/personal/microcontroller/arduino/ArduinoLibraries/ArduinoCore/Release/libArduinoCore.a(WString.o)
String::startsWith(String const&) const           /work/opensource/personal/microcontroller/arduino/ArduinoLibraries/ArduinoCore/Release/libArduinoCore.a(WString.o)
String::startsWith(String const&, unsigned int) const /work/opensource/personal/microcontroller/arduino/ArduinoLibraries/ArduinoCore/Release/libArduinoCore.a(WString.o)
String::substring(unsigned int, unsigned int) const /work/opensource/personal/microcontroller/arduino/ArduinoLibraries/ArduinoCore/Release/libArduinoCore.a(WString.o)
String::toFloat() const                           /work/opensource/personal/microcontroller/arduino/ArduinoLibraries/ArduinoCore/Release/libArduinoCore.a(WString.o)
String::toInt() const                             /work/opensource/personal/microcontroller/arduino/ArduinoLibraries/ArduinoCore/Release/libArduinoCore.a(WString.o)
String::toLowerCase()                             /work/opensource/personal/microcontroller/arduino/ArduinoLibraries/ArduinoCore/Release/libArduinoCore.a(WString.o)
String::toUpperCase()                             /work/opensource/personal/microcontroller/arduino/ArduinoLibraries/ArduinoCore/Release/libArduinoCore.a(WString.o)
String::trim()                                    /work/opensource/personal/microcontroller/arduino/ArduinoLibraries/ArduinoCore/Release/libArduinoCore.a(WString.o)
String::~String()                                 /work/opensource/personal/microcontroller/arduino/ArduinoLibraries/ArduinoCore/Release/libArduinoCore.a(WString.o)
String::~String()                                 /work/opensource/personal/microcontroller/arduino/ArduinoLibraries/ArduinoCore/Release/libArduinoCore.a(WString.o)
TwoWire::TwoWire()                                /work/opensource/personal/microcontroller/arduino/ArduinoLibraries/ArduinoCore/Release/libArduinoCore.a(Wire.o)
TwoWire::TwoWire()                                /work/opensource/personal/microcontroller/arduino/ArduinoLibraries/ArduinoCore/Release/libArduinoCore.a(Wire.o)
TwoWire::available()                              /work/opensource/personal/microcontroller/arduino/ArduinoLibraries/ArduinoCore/Release/libArduinoCore.a(Wire.o)
                                                  /work/opensource/personal/microcontroller/arduino/ArduinoLibraries/ArduinoDevice/Release/libArduinoDevice.a(EepromBasedWiredDevice.o)
                                                  /work/opensource/personal/microcontroller/arduino/ArduinoLibraries/ArduinoDevice/Release/libArduinoDevice.a(RegisterBasedWiredDevice.o)
TwoWire::begin()                                  /work/opensource/personal/microcontroller/arduino/ArduinoLibraries/ArduinoCore/Release/libArduinoCore.a(Wire.o)
                                                  /work/opensource/personal/microcontroller/arduino/ArduinoLibraries/ArduinoDevice/Release/libArduinoDevice.a(WiredDevice.o)
TwoWire::begin(int)                               /work/opensource/personal/microcontroller/arduino/ArduinoLibraries/ArduinoCore/Release/libArduinoCore.a(Wire.o)
TwoWire::begin(unsigned char)                     /work/opensource/personal/microcontroller/arduino/ArduinoLibraries/ArduinoCore/Release/libArduinoCore.a(Wire.o)
TwoWire::beginTransmission(int)                   /work/opensource/personal/microcontroller/arduino/ArduinoLibraries/ArduinoCore/Release/libArduinoCore.a(Wire.o)
TwoWire::beginTransmission(unsigned char)         /work/opensource/personal/microcontroller/arduino/ArduinoLibraries/ArduinoCore/Release/libArduinoCore.a(Wire.o)
                                                  /work/opensource/personal/microcontroller/arduino/ArduinoLibraries/ArduinoDevice/Release/libArduinoDevice.a(EepromBasedWiredDevice.o)
                                                  /work/opensource/personal/microcontroller/arduino/ArduinoLibraries/ArduinoDevice/Release/libArduinoDevice.a(RegisterBasedWiredDevice.o)
TwoWire::end()                                    /work/opensource/personal/microcontroller/arduino/ArduinoLibraries/ArduinoCore/Release/libArduinoCore.a(Wire.o)
TwoWire::endTransmission()                        /work/opensource/personal/microcontroller/arduino/ArduinoLibraries/ArduinoCore/Release/libArduinoCore.a(Wire.o)
                                                  /work/opensource/personal/microcontroller/arduino/ArduinoLibraries/ArduinoDevice/Release/libArduinoDevice.a(EepromBasedWiredDevice.o)
                                                  /work/opensource/personal/microcontroller/arduino/ArduinoLibraries/ArduinoDevice/Release/libArduinoDevice.a(RegisterBasedWiredDevice.o)
TwoWire::endTransmission(unsigned char)           /work/opensource/personal/microcontroller/arduino/ArduinoLibraries/ArduinoCore/Release/libArduinoCore.a(Wire.o)
                                                  /work/opensource/personal/microcontroller/arduino/ArduinoLibraries/ArduinoDevice/Release/libArduinoDevice.a(RegisterBasedWiredDevice.o)
TwoWire::flush()                                  /work/opensource/personal/microcontroller/arduino/ArduinoLibraries/ArduinoCore/Release/libArduinoCore.a(Wire.o)
TwoWire::onReceive(void (*)(int))                 /work/opensource/personal/microcontroller/arduino/ArduinoLibraries/ArduinoCore/Release/libArduinoCore.a(Wire.o)
TwoWire::onReceiveService(unsigned char*, int)    /work/opensource/personal/microcontroller/arduino/ArduinoLibraries/ArduinoCore/Release/libArduinoCore.a(Wire.o)
TwoWire::onRequest(void (*)())                    /work/opensource/personal/microcontroller/arduino/ArduinoLibraries/ArduinoCore/Release/libArduinoCore.a(Wire.o)
TwoWire::onRequestService()                       /work/opensource/personal/microcontroller/arduino/ArduinoLibraries/ArduinoCore/Release/libArduinoCore.a(Wire.o)
TwoWire::peek()                                   /work/opensource/personal/microcontroller/arduino/ArduinoLibraries/ArduinoCore/Release/libArduinoCore.a(Wire.o)
TwoWire::read()                                   /work/opensource/personal/microcontroller/arduino/ArduinoLibraries/ArduinoCore/Release/libArduinoCore.a(Wire.o)
                                                  /work/opensource/personal/microcontroller/arduino/ArduinoLibraries/ArduinoDevice/Release/libArduinoDevice.a(EepromBasedWiredDevice.o)
                                                  /work/opensource/personal/microcontroller/arduino/ArduinoLibraries/ArduinoDevice/Release/libArduinoDevice.a(RegisterBasedWiredDevice.o)
TwoWire::requestFrom(int, int)                    /work/opensource/personal/microcontroller/arduino/ArduinoLibraries/ArduinoCore/Release/libArduinoCore.a(Wire.o)
                                                  /work/opensource/personal/microcontroller/arduino/ArduinoLibraries/ArduinoDevice/Release/libArduinoDevice.a(EepromBasedWiredDevice.o)
TwoWire::requestFrom(int, int, int)               /work/opensource/personal/microcontroller/arduino/ArduinoLibraries/ArduinoCore/Release/libArduinoCore.a(Wire.o)
TwoWire::requestFrom(unsigned char, unsigned char) /work/opensource/personal/microcontroller/arduino/ArduinoLibraries/ArduinoCore/Release/libArduinoCore.a(Wire.o)
                                                  /work/opensource/personal/microcontroller/arduino/ArduinoLibraries/ArduinoDevice/Release/libArduinoDevice.a(RegisterBasedWiredDevice.o)
TwoWire::requestFrom(unsigned char, unsigned char, unsigned char) /work/opensource/personal/microcontroller/arduino/ArduinoLibraries/ArduinoCore/Release/libArduinoCore.a(Wire.o)
TwoWire::requestFrom(unsigned char, unsigned char, unsigned long, unsigned char, unsigned char) /work/opensource/personal/microcontroller/arduino/ArduinoLibraries/ArduinoCore/Release/libArduinoCore.a(Wire.o)
TwoWire::rxBuffer                                 /work/opensource/personal/microcontroller/arduino/ArduinoLibraries/ArduinoCore/Release/libArduinoCore.a(Wire.o)
TwoWire::rxBufferIndex                            /work/opensource/personal/microcontroller/arduino/ArduinoLibraries/ArduinoCore/Release/libArduinoCore.a(Wire.o)
TwoWire::rxBufferLength                           /work/opensource/personal/microcontroller/arduino/ArduinoLibraries/ArduinoCore/Release/libArduinoCore.a(Wire.o)
TwoWire::setClock(unsigned long)                  /work/opensource/personal/microcontroller/arduino/ArduinoLibraries/ArduinoCore/Release/libArduinoCore.a(Wire.o)
TwoWire::transmitting                             /work/opensource/personal/microcontroller/arduino/ArduinoLibraries/ArduinoCore/Release/libArduinoCore.a(Wire.o)
TwoWire::txAddress                                /work/opensource/personal/microcontroller/arduino/ArduinoLibraries/ArduinoCore/Release/libArduinoCore.a(Wire.o)
TwoWire::txBuffer                                 /work/opensource/personal/microcontroller/arduino/ArduinoLibraries/ArduinoCore/Release/libArduinoCore.a(Wire.o)
TwoWire::txBufferIndex                            /work/opensource/personal/microcontroller/arduino/ArduinoLibraries/ArduinoCore/Release/libArduinoCore.a(Wire.o)
TwoWire::txBufferLength                           /work/opensource/personal/microcontroller/arduino/ArduinoLibraries/ArduinoCore/Release/libArduinoCore.a(Wire.o)
TwoWire::user_onReceive                           /work/opensource/personal/microcontroller/arduino/ArduinoLibraries/ArduinoCore/Release/libArduinoCore.a(Wire.o)
TwoWire::user_onRequest                           /work/opensource/personal/microcontroller/arduino/ArduinoLibraries/ArduinoCore/Release/libArduinoCore.a(Wire.o)
TwoWire::write(int)                               /work/opensource/personal/microcontroller/arduino/ArduinoLibraries/ArduinoDevice/Release/libArduinoDevice.a(EepromBasedWiredDevice.o)
TwoWire::write(unsigned char const*, unsigned int) /work/opensource/personal/microcontroller/arduino/ArduinoLibraries/ArduinoCore/Release/libArduinoCore.a(Wire.o)
                                                  /work/opensource/personal/microcontroller/arduino/ArduinoLibraries/ArduinoDevice/Release/libArduinoDevice.a(EepromBasedWiredDevice.o)
                                                  /work/opensource/personal/microcontroller/arduino/ArduinoLibraries/ArduinoDevice/Release/libArduinoDevice.a(RegisterBasedWiredDevice.o)
TwoWire::write(unsigned char)                     /work/opensource/personal/microcontroller/arduino/ArduinoLibraries/ArduinoCore/Release/libArduinoCore.a(Wire.o)
                                                  /work/opensource/personal/microcontroller/arduino/ArduinoLibraries/ArduinoDevice/Release/libArduinoDevice.a(RegisterBasedWiredDevice.o)
VTT for ByteArrayInputStream                      /work/opensource/personal/microcontroller/arduino/ArduinoLibraries/ArduinoIO/Release/libArduinoIO.a(ByteArrayInputStream.o)
VTT for ByteArrayOutputStream                     /work/opensource/personal/microcontroller/arduino/ArduinoLibraries/ArduinoIO/Release/libArduinoIO.a(ByteArrayOutputStream.o)
VTT for ExternalEepromInputStream                 /work/opensource/personal/microcontroller/arduino/ArduinoLibraries/ArduinoIO/Release/libArduinoIO.a(ExternalEepromInputStream.o)
VTT for ExternalEepromOutputStream                /work/opensource/personal/microcontroller/arduino/ArduinoLibraries/ArduinoIO/Release/libArduinoIO.a(ExternalEepromOutputStream.o)
Wire                                              /work/opensource/personal/microcontroller/arduino/ArduinoLibraries/ArduinoCore/Release/libArduinoCore.a(Wire.o)
                                                  /work/opensource/personal/microcontroller/arduino/ArduinoLibraries/ArduinoDevice/Release/libArduinoDevice.a(WiredDevice.o)
                                                  /work/opensource/personal/microcontroller/arduino/ArduinoLibraries/ArduinoDevice/Release/libArduinoDevice.a(EepromBasedWiredDevice.o)
                                                  /work/opensource/personal/microcontroller/arduino/ArduinoLibraries/ArduinoDevice/Release/libArduinoDevice.a(RegisterBasedWiredDevice.o)
WiredDevice::WiredDevice(unsigned char)           /work/opensource/personal/microcontroller/arduino/ArduinoLibraries/ArduinoDevice/Release/libArduinoDevice.a(WiredDevice.o)
                                                  /work/opensource/personal/microcontroller/arduino/ArduinoLibraries/ArduinoDevice/Release/libArduinoDevice.a(EepromBasedWiredDevice.o)
                                                  /work/opensource/personal/microcontroller/arduino/ArduinoLibraries/ArduinoDevice/Release/libArduinoDevice.a(RegisterBasedWiredDevice.o)
WiredDevice::WiredDevice(unsigned char)           /work/opensource/personal/microcontroller/arduino/ArduinoLibraries/ArduinoDevice/Release/libArduinoDevice.a(WiredDevice.o)
WiredDevice::getDeviceAddress()                   /work/opensource/personal/microcontroller/arduino/ArduinoLibraries/ArduinoDevice/Release/libArduinoDevice.a(WiredDevice.o)
                                                  /work/opensource/personal/microcontroller/arduino/ArduinoLibraries/ArduinoDevice/Release/libArduinoDevice.a(EepromBasedWiredDevice.o)
                                                  /work/opensource/personal/microcontroller/arduino/ArduinoLibraries/ArduinoDevice/Release/libArduinoDevice.a(RegisterBasedWiredDevice.o)
WiredDevice::setDeviceAddress(unsigned char)      /work/opensource/personal/microcontroller/arduino/ArduinoLibraries/ArduinoDevice/Release/libArduinoDevice.a(WiredDevice.o)
__addsf3                                          /usr/lib/gcc/avr/4.8.1/../../../avr/lib/avr5/libm.a(addsf3.o)
                                                  /work/opensource/personal/microcontroller/arduino/ArduinoLibraries/ArduinoCore/Release/libArduinoCore.a(Print.o)
__addsf3x                                         /usr/lib/gcc/avr/4.8.1/../../../avr/lib/avr5/libm.a(addsf3x.o)
                                                  /usr/lib/gcc/avr/4.8.1/../../../avr/lib/avr5/libm.a(addsf3.o)
__bad_interrupt                                   /usr/lib/gcc/avr/4.8.1/../../../avr/lib/avr5/crtm328p.o
__brkval                                          /usr/lib/gcc/avr/4.8.1/../../../avr/lib/avr5/libc.a(malloc.o)
                                                  /usr/lib/gcc/avr/4.8.1/../../../avr/lib/avr5/libc.a(realloc.o)
__bss_end                                         /usr/lib/gcc/avr/4.8.1/avr5/libgcc.a(_clear_bss.o)
__bss_start                                       /usr/lib/gcc/avr/4.8.1/avr5/libgcc.a(_clear_bss.o)
__cmpsf2                                          /usr/lib/gcc/avr/4.8.1/../../../avr/lib/avr5/libm.a(cmpsf2.o)
__ctors_end                                       /usr/lib/gcc/avr/4.8.1/avr5/libgcc.a(_ctors.o)
__ctors_start                                     /usr/lib/gcc/avr/4.8.1/avr5/libgcc.a(_ctors.o)
__ctype_isfalse                                   /usr/lib/gcc/avr/4.8.1/../../../avr/lib/avr5/libc.a(cty_isfalse.o)
                                                  /usr/lib/gcc/avr/4.8.1/../../../avr/lib/avr5/libc.a(isspace.o)
__ctype_istrue                                    /usr/lib/gcc/avr/4.8.1/../../../avr/lib/avr5/libc.a(cty_isfalse.o)
__cxa_deleted_virtual                             /work/opensource/personal/microcontroller/arduino/ArduinoLibraries/ArduinoCore/Release/libArduinoCore.a(abi.o)
__cxa_pure_virtual                                /work/opensource/personal/microcontroller/arduino/ArduinoLibraries/ArduinoCore/Release/libArduinoCore.a(abi.o)
                                                  /work/opensource/personal/microcontroller/arduino/ArduinoLibraries/ArduinoCore/Release/libArduinoCore.a(Print.o)
                                                  /work/opensource/personal/microcontroller/arduino/ArduinoLibraries/ArduinoCore/Release/libArduinoCore.a(SoftwareSerial.o)
                                                  /work/opensource/personal/microcontroller/arduino/ArduinoLibraries/ArduinoCore/Release/libArduinoCore.a(Wire.o)
                                                  /work/opensource/personal/microcontroller/arduino/ArduinoLibraries/ArduinoIO/Release/libArduinoIO.a(ByteArrayInputStream.o)
                                                  /work/opensource/personal/microcontroller/arduino/ArduinoLibraries/ArduinoIO/Release/libArduinoIO.a(ByteArrayOutputStream.o)
                                                  /work/opensource/personal/microcontroller/arduino/ArduinoLibraries/ArduinoIO/Release/libArduinoIO.a(DataInputStream.o)
                                                  /work/opensource/personal/microcontroller/arduino/ArduinoLibraries/ArduinoIO/Release/libArduinoIO.a(DataOutputStream.o)
                                                  /work/opensource/personal/microcontroller/arduino/ArduinoLibraries/ArduinoIO/Release/libArduinoIO.a(ExternalEepromInputStream.o)
                                                  /work/opensource/personal/microcontroller/arduino/ArduinoLibraries/ArduinoIO/Release/libArduinoIO.a(ExternalEepromOutputStream.o)
                                                  /work/opensource/personal/microcontroller/arduino/ArduinoLibraries/ArduinoIO/Release/libArduinoIO.a(InputStream.o)
                                                  /work/opensource/personal/microcontroller/arduino/ArduinoLibraries/ArduinoIO/Release/libArduinoIO.a(OutputStream.o)
                                                  /work/opensource/personal/microcontroller/arduino/ArduinoLibraries/ArduinoIO/Release/libArduinoIO.a(SoftwareSerialInputStream.o)
                                                  /work/opensource/personal/microcontroller/arduino/ArduinoLibraries/ArduinoIO/Release/libArduinoIO.a(SoftwareSerialOutputStream.o)
                                                  /work/opensource/personal/microcontroller/arduino/ArduinoLibraries/ArduinoAccelerometerDriver/Release/libArduinoAccelerometerSensor.a(AccelerometerMMA8451.o)
__data_end                                        /usr/lib/gcc/avr/4.8.1/avr5/libgcc.a(_copy_data.o)
__data_load_start                                 /usr/lib/gcc/avr/4.8.1/avr5/libgcc.a(_copy_data.o)
__data_start                                      /usr/lib/gcc/avr/4.8.1/avr5/libgcc.a(_copy_data.o)
__divmodhi4                                       /usr/lib/gcc/avr/4.8.1/avr5/libgcc.a(_divmodhi4.o)
                                                  /work/opensource/personal/microcontroller/arduino/ArduinoLibraries/ArduinoCore/Release/libArduinoCore.a(SoftwareSerial.o)
__divsf3                                          /usr/lib/gcc/avr/4.8.1/../../../avr/lib/avr5/libm.a(divsf3.o)
                                                  /work/opensource/personal/microcontroller/arduino/ArduinoLibraries/ArduinoCore/Release/libArduinoCore.a(Print.o)
                                                  /work/opensource/personal/microcontroller/arduino/ArduinoLibraries/ArduinoAccelerometerDriver/Release/libArduinoAccelerometerSensor.a(AccelerometerMMA8451.o)
__divsf3_pse                                      /usr/lib/gcc/avr/4.8.1/../../../avr/lib/avr5/libm.a(divsf3x.o)
__divsf3x                                         /usr/lib/gcc/avr/4.8.1/../../../avr/lib/avr5/libm.a(divsf3x.o)
                                                  /usr/lib/gcc/avr/4.8.1/../../../avr/lib/avr5/libm.a(divsf3.o)
__do_clear_bss                                    /usr/lib/gcc/avr/4.8.1/avr5/libgcc.a(_clear_bss.o)
                                                  /usr/lib/gcc/avr/4.8.1/../../../avr/lib/avr5/libc.a(errno.o)
                                                  /usr/lib/gcc/avr/4.8.1/../../../avr/lib/avr5/libc.a(malloc.o)
                                                  /work/opensource/personal/microcontroller/arduino/ArduinoLibraries/ArduinoCore/Release/libArduinoCore.a(twi.o)
                                                  /work/opensource/personal/microcontroller/arduino/ArduinoLibraries/ArduinoCore/Release/libArduinoCore.a(wiring.o)
                                                  /work/opensource/personal/microcontroller/arduino/ArduinoLibraries/ArduinoCore/Release/libArduinoCore.a(WString.o)
                                                  /work/opensource/personal/microcontroller/arduino/ArduinoLibraries/ArduinoCore/Release/libArduinoCore.a(HardwareSerial0.o)
                                                  /work/opensource/personal/microcontroller/arduino/ArduinoLibraries/ArduinoCore/Release/libArduinoCore.a(SoftwareSerial.o)
                                                  /work/opensource/personal/microcontroller/arduino/ArduinoLibraries/ArduinoCore/Release/libArduinoCore.a(Wire.o)
                                                  /work/opensource/personal/microcontroller/arduino/ArduinoLibraries/ArduinoMessagingProtocol/Release/libArduinoMessagingProtocol.a(Message.o)
                                                  ./main.o
__do_copy_data                                    /usr/lib/gcc/avr/4.8.1/avr5/libgcc.a(_copy_data.o)
                                                  /usr/lib/gcc/avr/4.8.1/../../../avr/lib/avr5/libc.a(malloc.o)
                                                  /work/opensource/personal/microcontroller/arduino/ArduinoLibraries/ArduinoCore/Release/libArduinoCore.a(WString.o)
                                                  /work/opensource/personal/microcontroller/arduino/ArduinoLibraries/ArduinoCore/Release/libArduinoCore.a(WInterrupts.o)
                                                  /work/opensource/personal/microcontroller/arduino/ArduinoLibraries/ArduinoCore/Release/libArduinoCore.a(Stream.o)
                                                  /work/opensource/personal/microcontroller/arduino/ArduinoLibraries/ArduinoCore/Release/libArduinoCore.a(Print.o)
                                                  /work/opensource/personal/microcontroller/arduino/ArduinoLibraries/ArduinoCore/Release/libArduinoCore.a(HardwareSerial.o)
                                                  /work/opensource/personal/microcontroller/arduino/ArduinoLibraries/ArduinoCore/Release/libArduinoCore.a(SoftwareSerial.o)
                                                  /work/opensource/personal/microcontroller/arduino/ArduinoLibraries/ArduinoCore/Release/libArduinoCore.a(Wire.o)
                                                  /work/opensource/personal/microcontroller/arduino/ArduinoLibraries/ArduinoDevice/Release/libArduinoDevice.a(EepromBasedWiredDevice.o)
                                                  /work/opensource/personal/microcontroller/arduino/ArduinoLibraries/ArduinoMemoryDriver/Release/libArduinoMemoryDriver.a(External24cl256Eeprom.o)
                                                  /work/opensource/personal/microcontroller/arduino/ArduinoLibraries/ArduinoMemoryDriver/Release/libArduinoMemoryDriver.a(ExternalEeprom.o)
                                                  /work/opensource/personal/microcontroller/arduino/ArduinoLibraries/ArduinoIO/Release/libArduinoIO.a(ByteArrayInputStream.o)
                                                  /work/opensource/personal/microcontroller/arduino/ArduinoLibraries/ArduinoIO/Release/libArduinoIO.a(ByteArrayOutputStream.o)
                                                  /work/opensource/personal/microcontroller/arduino/ArduinoLibraries/ArduinoIO/Release/libArduinoIO.a(DataInputStream.o)
                                                  /work/opensource/personal/microcontroller/arduino/ArduinoLibraries/ArduinoIO/Release/libArduinoIO.a(DataOutputStream.o)
                                                  /work/opensource/personal/microcontroller/arduino/ArduinoLibraries/ArduinoIO/Release/libArduinoIO.a(ExternalEepromInputStream.o)
                                                  /work/opensource/personal/microcontroller/arduino/ArduinoLibraries/ArduinoIO/Release/libArduinoIO.a(ExternalEepromOutputStream.o)
                                                  /work/opensource/personal/microcontroller/arduino/ArduinoLibraries/ArduinoIO/Release/libArduinoIO.a(InputStream.o)
                                                  /work/opensource/personal/microcontroller/arduino/ArduinoLibraries/ArduinoIO/Release/libArduinoIO.a(OutputStream.o)
                                                  /work/opensource/personal/microcontroller/arduino/ArduinoLibraries/ArduinoIO/Release/libArduinoIO.a(SoftwareSerialInputStream.o)
                                                  /work/opensource/personal/microcontroller/arduino/ArduinoLibraries/ArduinoIO/Release/libArduinoIO.a(SoftwareSerialOutputStream.o)
                                                  /work/opensource/personal/microcontroller/arduino/ArduinoLibraries/ArduinoMessagingProtocol/Release/libArduinoMessagingProtocol.a(RemoteDevice.o)
                                                  /work/opensource/personal/microcontroller/arduino/ArduinoLibraries/ArduinoAccelerometerDriver/Release/libArduinoAccelerometerSensor.a(AccelerometerMMA8451.o)
                                                  ./main.o
__do_global_ctors                                 /usr/lib/gcc/avr/4.8.1/avr5/libgcc.a(_ctors.o)
                                                  /work/opensource/personal/microcontroller/arduino/ArduinoLibraries/ArduinoCore/Release/libArduinoCore.a(HardwareSerial0.o)
                                                  /work/opensource/personal/microcontroller/arduino/ArduinoLibraries/ArduinoCore/Release/libArduinoCore.a(Wire.o)
                                                  ./main.o
__do_global_dtors                                 /usr/lib/gcc/avr/4.8.1/avr5/libgcc.a(_dtors.o)
                                                  ./main.o
__dtors_end                                       /usr/lib/gcc/avr/4.8.1/avr5/libgcc.a(_dtors.o)
__dtors_start                                     /usr/lib/gcc/avr/4.8.1/avr5/libgcc.a(_dtors.o)
__epilogue_restores__                             /usr/lib/gcc/avr/4.8.1/avr5/libgcc.a(_epilogue.o)
                                                  /usr/lib/gcc/avr/4.8.1/../../../avr/lib/avr5/libc.a(strtod.o)
                                                  /usr/lib/gcc/avr/4.8.1/../../../avr/lib/avr5/libc.a(realloc.o)
__eqsf2                                           /usr/lib/gcc/avr/4.8.1/../../../avr/lib/avr5/libm.a(cmpsf2.o)
                                                  /usr/lib/gcc/avr/4.8.1/../../../avr/lib/avr5/libc.a(strtod.o)
__fixsfsi                                         /usr/lib/gcc/avr/4.8.1/../../../avr/lib/avr5/libm.a(fixsfsi.o)
                                                  /work/opensource/personal/microcontroller/arduino/ArduinoLibraries/ArduinoCore/Release/libArduinoCore.a(Print.o)
__fixunssfsi                                      /usr/lib/gcc/avr/4.8.1/../../../avr/lib/avr5/libm.a(fixunssfsi.o)
                                                  /usr/lib/gcc/avr/4.8.1/../../../avr/lib/avr5/libm.a(fixsfsi.o)
                                                  /work/opensource/personal/microcontroller/arduino/ArduinoLibraries/ArduinoCore/Release/libArduinoCore.a(Print.o)
__floatsisf                                       /usr/lib/gcc/avr/4.8.1/../../../avr/lib/avr5/libm.a(floatsisf.o)
                                                  /work/opensource/personal/microcontroller/arduino/ArduinoLibraries/ArduinoCore/Release/libArduinoCore.a(Stream.o)
                                                  /work/opensource/personal/microcontroller/arduino/ArduinoLibraries/ArduinoCore/Release/libArduinoCore.a(Print.o)
                                                  /work/opensource/personal/microcontroller/arduino/ArduinoLibraries/ArduinoIO/Release/libArduinoIO.a(DataInputStream.o)
                                                  /work/opensource/personal/microcontroller/arduino/ArduinoLibraries/ArduinoAccelerometerDriver/Release/libArduinoAccelerometerSensor.a(AccelerometerMMA8451.o)
__floatunsisf                                     /usr/lib/gcc/avr/4.8.1/../../../avr/lib/avr5/libm.a(floatsisf.o)
                                                  /usr/lib/gcc/avr/4.8.1/../../../avr/lib/avr5/libc.a(strtod.o)
                                                  /work/opensource/personal/microcontroller/arduino/ArduinoLibraries/ArduinoCore/Release/libArduinoCore.a(Print.o)
__flp                                             /usr/lib/gcc/avr/4.8.1/../../../avr/lib/avr5/libc.a(malloc.o)
                                                  /usr/lib/gcc/avr/4.8.1/../../../avr/lib/avr5/libc.a(realloc.o)
__fp_cmp                                          /usr/lib/gcc/avr/4.8.1/../../../avr/lib/avr5/libm.a(fp_cmp.o)
                                                  /usr/lib/gcc/avr/4.8.1/../../../avr/lib/avr5/libm.a(unordsf2.o)
                                                  /usr/lib/gcc/avr/4.8.1/../../../avr/lib/avr5/libm.a(gesf2.o)
                                                  /usr/lib/gcc/avr/4.8.1/../../../avr/lib/avr5/libm.a(cmpsf2.o)
__fp_inf                                          /usr/lib/gcc/avr/4.8.1/../../../avr/lib/avr5/libm.a(fp_inf.o)
                                                  /usr/lib/gcc/avr/4.8.1/../../../avr/lib/avr5/libm.a(mulsf3x.o)
                                                  /usr/lib/gcc/avr/4.8.1/../../../avr/lib/avr5/libm.a(divsf3x.o)
                                                  /usr/lib/gcc/avr/4.8.1/../../../avr/lib/avr5/libm.a(addsf3x.o)
__fp_nan                                          /usr/lib/gcc/avr/4.8.1/../../../avr/lib/avr5/libm.a(fp_nan.o)
                                                  /usr/lib/gcc/avr/4.8.1/../../../avr/lib/avr5/libm.a(mulsf3x.o)
                                                  /usr/lib/gcc/avr/4.8.1/../../../avr/lib/avr5/libm.a(divsf3x.o)
                                                  /usr/lib/gcc/avr/4.8.1/../../../avr/lib/avr5/libm.a(addsf3x.o)
__fp_pscA                                         /usr/lib/gcc/avr/4.8.1/../../../avr/lib/avr5/libm.a(fp_pscA.o)
                                                  /usr/lib/gcc/avr/4.8.1/../../../avr/lib/avr5/libm.a(mulsf3x.o)
                                                  /usr/lib/gcc/avr/4.8.1/../../../avr/lib/avr5/libm.a(divsf3x.o)
                                                  /usr/lib/gcc/avr/4.8.1/../../../avr/lib/avr5/libm.a(addsf3x.o)
__fp_pscB                                         /usr/lib/gcc/avr/4.8.1/../../../avr/lib/avr5/libm.a(fp_pscB.o)
                                                  /usr/lib/gcc/avr/4.8.1/../../../avr/lib/avr5/libm.a(mulsf3x.o)
                                                  /usr/lib/gcc/avr/4.8.1/../../../avr/lib/avr5/libm.a(divsf3x.o)
                                                  /usr/lib/gcc/avr/4.8.1/../../../avr/lib/avr5/libm.a(addsf3x.o)
__fp_round                                        /usr/lib/gcc/avr/4.8.1/../../../avr/lib/avr5/libm.a(fp_round.o)
                                                  /usr/lib/gcc/avr/4.8.1/../../../avr/lib/avr5/libm.a(mulsf3.o)
                                                  /usr/lib/gcc/avr/4.8.1/../../../avr/lib/avr5/libm.a(divsf3.o)
                                                  /usr/lib/gcc/avr/4.8.1/../../../avr/lib/avr5/libm.a(addsf3.o)
__fp_split3                                       /usr/lib/gcc/avr/4.8.1/../../../avr/lib/avr5/libm.a(fp_split3.o)
                                                  /usr/lib/gcc/avr/4.8.1/../../../avr/lib/avr5/libm.a(mulsf3x.o)
                                                  /usr/lib/gcc/avr/4.8.1/../../../avr/lib/avr5/libm.a(divsf3x.o)
                                                  /usr/lib/gcc/avr/4.8.1/../../../avr/lib/avr5/libm.a(addsf3x.o)
__fp_splitA                                       /usr/lib/gcc/avr/4.8.1/../../../avr/lib/avr5/libm.a(fp_split3.o)
                                                  /usr/lib/gcc/avr/4.8.1/../../../avr/lib/avr5/libm.a(fixunssfsi.o)
__fp_szero                                        /usr/lib/gcc/avr/4.8.1/../../../avr/lib/avr5/libm.a(fp_zero.o)
                                                  /usr/lib/gcc/avr/4.8.1/../../../avr/lib/avr5/libm.a(mulsf3x.o)
                                                  /usr/lib/gcc/avr/4.8.1/../../../avr/lib/avr5/libm.a(fixsfsi.o)
                                                  /usr/lib/gcc/avr/4.8.1/../../../avr/lib/avr5/libm.a(divsf3x.o)
__fp_zero                                         /usr/lib/gcc/avr/4.8.1/../../../avr/lib/avr5/libm.a(fp_zero.o)
                                                  /usr/lib/gcc/avr/4.8.1/../../../avr/lib/avr5/libm.a(fixunssfsi.o)
                                                  /usr/lib/gcc/avr/4.8.1/../../../avr/lib/avr5/libm.a(addsf3x.o)
__ftoa_engine                                     /usr/lib/gcc/avr/4.8.1/../../../avr/lib/avr5/libc.a(ftoa_engine.o)
                                                  /usr/lib/gcc/avr/4.8.1/../../../avr/lib/avr5/libc.a(dtoa_prf.o)
__gesf2                                           /usr/lib/gcc/avr/4.8.1/../../../avr/lib/avr5/libm.a(gesf2.o)
__gtsf2                                           /usr/lib/gcc/avr/4.8.1/../../../avr/lib/avr5/libm.a(gesf2.o)
                                                  /work/opensource/personal/microcontroller/arduino/ArduinoLibraries/ArduinoCore/Release/libArduinoCore.a(Print.o)
__heap_end                                        /usr/lib/gcc/avr/4.8.1/../../../avr/lib/avr5/crtm328p.o
                                                  /usr/lib/gcc/avr/4.8.1/../../../avr/lib/avr5/libc.a(malloc.o)
__heap_start                                      /usr/lib/gcc/avr/4.8.1/../../../avr/lib/avr5/libc.a(malloc.o)
__init                                            /usr/lib/gcc/avr/4.8.1/../../../avr/lib/avr5/crtm328p.o
__itoa                                            /usr/lib/gcc/avr/4.8.1/../../../avr/lib/avr5/libc.a(itoa.o)
                                                  /work/opensource/personal/microcontroller/arduino/ArduinoLibraries/ArduinoCore/Release/libArduinoCore.a(WString.o)
__itoa_ncheck                                     /usr/lib/gcc/avr/4.8.1/../../../avr/lib/avr5/libc.a(itoa_ncheck.o)
                                                  /usr/lib/gcc/avr/4.8.1/../../../avr/lib/avr5/libc.a(itoa.o)
__lesf2                                           /usr/lib/gcc/avr/4.8.1/../../../avr/lib/avr5/libm.a(cmpsf2.o)
                                                  /work/opensource/personal/microcontroller/arduino/ArduinoLibraries/ArduinoCore/Release/libArduinoCore.a(Print.o)
__ltoa                                            /usr/lib/gcc/avr/4.8.1/../../../avr/lib/avr5/libc.a(ltoa.o)
                                                  /work/opensource/personal/microcontroller/arduino/ArduinoLibraries/ArduinoCore/Release/libArduinoCore.a(WString.o)
__ltoa_ncheck                                     /usr/lib/gcc/avr/4.8.1/../../../avr/lib/avr5/libc.a(ltoa_ncheck.o)
                                                  /usr/lib/gcc/avr/4.8.1/../../../avr/lib/avr5/libc.a(ltoa.o)
__ltsf2                                           /usr/lib/gcc/avr/4.8.1/../../../avr/lib/avr5/libm.a(cmpsf2.o)
                                                  /work/opensource/personal/microcontroller/arduino/ArduinoLibraries/ArduinoCore/Release/libArduinoCore.a(Print.o)
__malloc_heap_end                                 /usr/lib/gcc/avr/4.8.1/../../../avr/lib/avr5/libc.a(malloc.o)
                                                  /usr/lib/gcc/avr/4.8.1/../../../avr/lib/avr5/libc.a(realloc.o)
__malloc_heap_start                               /usr/lib/gcc/avr/4.8.1/../../../avr/lib/avr5/libc.a(malloc.o)
__malloc_margin                                   /usr/lib/gcc/avr/4.8.1/../../../avr/lib/avr5/libc.a(malloc.o)
                                                  /usr/lib/gcc/avr/4.8.1/../../../avr/lib/avr5/libc.a(realloc.o)
__mulsf3                                          /usr/lib/gcc/avr/4.8.1/../../../avr/lib/avr5/libm.a(mulsf3.o)
                                                  /usr/lib/gcc/avr/4.8.1/../../../avr/lib/avr5/libc.a(strtod.o)
                                                  /work/opensource/personal/microcontroller/arduino/ArduinoLibraries/ArduinoCore/Release/libArduinoCore.a(Stream.o)
                                                  /work/opensource/personal/microcontroller/arduino/ArduinoLibraries/ArduinoCore/Release/libArduinoCore.a(Print.o)
__mulsf3_pse                                      /usr/lib/gcc/avr/4.8.1/../../../avr/lib/avr5/libm.a(mulsf3x.o)
__mulsf3x                                         /usr/lib/gcc/avr/4.8.1/../../../avr/lib/avr5/libm.a(mulsf3x.o)
                                                  /usr/lib/gcc/avr/4.8.1/../../../avr/lib/avr5/libm.a(mulsf3.o)
__mulsi_const_10                                  /usr/lib/gcc/avr/4.8.1/../../../avr/lib/avr5/libc.a(mulsi10.o)
                                                  /usr/lib/gcc/avr/4.8.1/../../../avr/lib/avr5/libc.a(atol.o)
__muluhisi3                                       /usr/lib/gcc/avr/4.8.1/avr5/libgcc.a(_muluhisi3.o)
                                                  /usr/lib/gcc/avr/4.8.1/../../../avr/lib/avr5/libc.a(strtod.o)
                                                  /work/opensource/personal/microcontroller/arduino/ArduinoLibraries/ArduinoCore/Release/libArduinoCore.a(Stream.o)
__nesf2                                           /usr/lib/gcc/avr/4.8.1/../../../avr/lib/avr5/libm.a(cmpsf2.o)
                                                  /usr/lib/gcc/avr/4.8.1/../../../avr/lib/avr5/libc.a(strtod.o)
__prologue_saves__                                /usr/lib/gcc/avr/4.8.1/avr5/libgcc.a(_prologue.o)
                                                  /usr/lib/gcc/avr/4.8.1/../../../avr/lib/avr5/libc.a(strtod.o)
                                                  /usr/lib/gcc/avr/4.8.1/../../../avr/lib/avr5/libc.a(realloc.o)
__stack                                           /usr/lib/gcc/avr/4.8.1/../../../avr/lib/avr5/crtm328p.o
__strlen_P                                        /usr/lib/gcc/avr/4.8.1/../../../avr/lib/avr5/libc.a(strlen_P.o)
                                                  /work/opensource/personal/microcontroller/arduino/ArduinoLibraries/ArduinoCore/Release/libArduinoCore.a(WString.o)
__subsf3                                          /usr/lib/gcc/avr/4.8.1/../../../avr/lib/avr5/libm.a(addsf3.o)
                                                  /work/opensource/personal/microcontroller/arduino/ArduinoLibraries/ArduinoCore/Release/libArduinoCore.a(Print.o)
__tablejump2__                                    /usr/lib/gcc/avr/4.8.1/avr5/libgcc.a(_tablejump.o)
                                                  /work/opensource/personal/microcontroller/arduino/ArduinoLibraries/ArduinoMessagingProtocol/Release/libArduinoMessagingProtocol.a(MessageParser.o)
__tablejump__                                     /usr/lib/gcc/avr/4.8.1/avr5/libgcc.a(_tablejump.o)
                                                  /usr/lib/gcc/avr/4.8.1/avr5/libgcc.a(_dtors.o)
                                                  /usr/lib/gcc/avr/4.8.1/avr5/libgcc.a(_ctors.o)
__udivmodhi4                                      /usr/lib/gcc/avr/4.8.1/avr5/libgcc.a(_udivmodhi4.o)
                                                  /usr/lib/gcc/avr/4.8.1/avr5/libgcc.a(_divmodhi4.o)
                                                  /work/opensource/personal/microcontroller/arduino/ArduinoLibraries/ArduinoMemoryDriver/Release/libArduinoMemoryDriver.a(ExternalEeprom.o)
__udivmodsi4                                      /usr/lib/gcc/avr/4.8.1/avr5/libgcc.a(_udivmodsi4.o)
                                                  /work/opensource/personal/microcontroller/arduino/ArduinoLibraries/ArduinoCore/Release/libArduinoCore.a(twi.o)
                                                  /work/opensource/personal/microcontroller/arduino/ArduinoLibraries/ArduinoCore/Release/libArduinoCore.a(Print.o)
                                                  /work/opensource/personal/microcontroller/arduino/ArduinoLibraries/ArduinoCore/Release/libArduinoCore.a(HardwareSerial.o)
                                                  /work/opensource/personal/microcontroller/arduino/ArduinoLibraries/ArduinoCore/Release/libArduinoCore.a(SoftwareSerial.o)
__ultoa                                           /usr/lib/gcc/avr/4.8.1/../../../avr/lib/avr5/libc.a(ultoa.o)
                                                  /work/opensource/personal/microcontroller/arduino/ArduinoLibraries/ArduinoCore/Release/libArduinoCore.a(WString.o)
__ultoa_common                                    /usr/lib/gcc/avr/4.8.1/../../../avr/lib/avr5/libc.a(ultoa_ncheck.o)
                                                  /usr/lib/gcc/avr/4.8.1/../../../avr/lib/avr5/libc.a(ltoa_ncheck.o)
__ultoa_ncheck                                    /usr/lib/gcc/avr/4.8.1/../../../avr/lib/avr5/libc.a(ultoa_ncheck.o)
                                                  /usr/lib/gcc/avr/4.8.1/../../../avr/lib/avr5/libc.a(ultoa.o)
__umulhisi3                                       /usr/lib/gcc/avr/4.8.1/avr5/libgcc.a(_umulhisi3.o)
                                                  /usr/lib/gcc/avr/4.8.1/avr5/libgcc.a(_muluhisi3.o)
__unordsf2                                        /usr/lib/gcc/avr/4.8.1/../../../avr/lib/avr5/libm.a(unordsf2.o)
                                                  /work/opensource/personal/microcontroller/arduino/ArduinoLibraries/ArduinoCore/Release/libArduinoCore.a(Print.o)
__utoa                                            /usr/lib/gcc/avr/4.8.1/../../../avr/lib/avr5/libc.a(utoa.o)
                                                  /work/opensource/personal/microcontroller/arduino/ArduinoLibraries/ArduinoCore/Release/libArduinoCore.a(WString.o)
__utoa_common                                     /usr/lib/gcc/avr/4.8.1/../../../avr/lib/avr5/libc.a(utoa_ncheck.o)
                                                  /usr/lib/gcc/avr/4.8.1/../../../avr/lib/avr5/libc.a(itoa_ncheck.o)
__utoa_ncheck                                     /usr/lib/gcc/avr/4.8.1/../../../avr/lib/avr5/libc.a(utoa_ncheck.o)
                                                  /usr/lib/gcc/avr/4.8.1/../../../avr/lib/avr5/libc.a(utoa.o)
__vector_1                                        /work/opensource/personal/microcontroller/arduino/ArduinoLibraries/ArduinoCore/Release/libArduinoCore.a(WInterrupts.o)
                                                  /usr/lib/gcc/avr/4.8.1/../../../avr/lib/avr5/crtm328p.o
__vector_10                                       /usr/lib/gcc/avr/4.8.1/../../../avr/lib/avr5/crtm328p.o
__vector_11                                       /usr/lib/gcc/avr/4.8.1/../../../avr/lib/avr5/crtm328p.o
__vector_12                                       /usr/lib/gcc/avr/4.8.1/../../../avr/lib/avr5/crtm328p.o
__vector_13                                       /usr/lib/gcc/avr/4.8.1/../../../avr/lib/avr5/crtm328p.o
__vector_14                                       /usr/lib/gcc/avr/4.8.1/../../../avr/lib/avr5/crtm328p.o
__vector_15                                       /usr/lib/gcc/avr/4.8.1/../../../avr/lib/avr5/crtm328p.o
__vector_16                                       /work/opensource/personal/microcontroller/arduino/ArduinoLibraries/ArduinoCore/Release/libArduinoCore.a(wiring.o)
                                                  /usr/lib/gcc/avr/4.8.1/../../../avr/lib/avr5/crtm328p.o
__vector_17                                       /usr/lib/gcc/avr/4.8.1/../../../avr/lib/avr5/crtm328p.o
__vector_18                                       /work/opensource/personal/microcontroller/arduino/ArduinoLibraries/ArduinoCore/Release/libArduinoCore.a(HardwareSerial0.o)
                                                  /usr/lib/gcc/avr/4.8.1/../../../avr/lib/avr5/crtm328p.o
__vector_19                                       /work/opensource/personal/microcontroller/arduino/ArduinoLibraries/ArduinoCore/Release/libArduinoCore.a(HardwareSerial0.o)
                                                  /usr/lib/gcc/avr/4.8.1/../../../avr/lib/avr5/crtm328p.o
__vector_2                                        /work/opensource/personal/microcontroller/arduino/ArduinoLibraries/ArduinoCore/Release/libArduinoCore.a(WInterrupts.o)
                                                  /usr/lib/gcc/avr/4.8.1/../../../avr/lib/avr5/crtm328p.o
__vector_20                                       /usr/lib/gcc/avr/4.8.1/../../../avr/lib/avr5/crtm328p.o
__vector_21                                       /usr/lib/gcc/avr/4.8.1/../../../avr/lib/avr5/crtm328p.o
__vector_22                                       /usr/lib/gcc/avr/4.8.1/../../../avr/lib/avr5/crtm328p.o
__vector_23                                       /usr/lib/gcc/avr/4.8.1/../../../avr/lib/avr5/crtm328p.o
__vector_24                                       /work/opensource/personal/microcontroller/arduino/ArduinoLibraries/ArduinoCore/Release/libArduinoCore.a(twi.o)
                                                  /usr/lib/gcc/avr/4.8.1/../../../avr/lib/avr5/crtm328p.o
__vector_25                                       /usr/lib/gcc/avr/4.8.1/../../../avr/lib/avr5/crtm328p.o
__vector_3                                        /work/opensource/personal/microcontroller/arduino/ArduinoLibraries/ArduinoCore/Release/libArduinoCore.a(SoftwareSerial.o)
                                                  /usr/lib/gcc/avr/4.8.1/../../../avr/lib/avr5/crtm328p.o
__vector_4                                        /work/opensource/personal/microcontroller/arduino/ArduinoLibraries/ArduinoCore/Release/libArduinoCore.a(SoftwareSerial.o)
                                                  /usr/lib/gcc/avr/4.8.1/../../../avr/lib/avr5/crtm328p.o
__vector_5                                        /work/opensource/personal/microcontroller/arduino/ArduinoLibraries/ArduinoCore/Release/libArduinoCore.a(SoftwareSerial.o)
                                                  /usr/lib/gcc/avr/4.8.1/../../../avr/lib/avr5/crtm328p.o
__vector_6                                        /usr/lib/gcc/avr/4.8.1/../../../avr/lib/avr5/crtm328p.o
__vector_7                                        /usr/lib/gcc/avr/4.8.1/../../../avr/lib/avr5/crtm328p.o
__vector_8                                        /usr/lib/gcc/avr/4.8.1/../../../avr/lib/avr5/crtm328p.o
__vector_9                                        /usr/lib/gcc/avr/4.8.1/../../../avr/lib/avr5/crtm328p.o
__vector_default                                  /usr/lib/gcc/avr/4.8.1/../../../avr/lib/avr5/crtm328p.o
__vectors                                         /usr/lib/gcc/avr/4.8.1/../../../avr/lib/avr5/crtm328p.o
_div                                              /usr/lib/gcc/avr/4.8.1/avr5/libgcc.a(_divmodhi4.o)
_exit                                             /usr/lib/gcc/avr/4.8.1/avr5/libgcc.a(_exit.o)
                                                  /usr/lib/gcc/avr/4.8.1/../../../avr/lib/avr5/libc.a(abort.o)
abort                                             /usr/lib/gcc/avr/4.8.1/../../../avr/lib/avr5/libc.a(abort.o)
                                                  /work/opensource/personal/microcontroller/arduino/ArduinoLibraries/ArduinoCore/Release/libArduinoCore.a(abi.o)
acc                                               ./main.o
atof                                              /usr/lib/gcc/avr/4.8.1/../../../avr/lib/avr5/libc.a(atof.o)
                                                  /work/opensource/personal/microcontroller/arduino/ArduinoLibraries/ArduinoCore/Release/libArduinoCore.a(WString.o)
atol                                              /usr/lib/gcc/avr/4.8.1/../../../avr/lib/avr5/libc.a(atol.o)
                                                  /work/opensource/personal/microcontroller/arduino/ArduinoLibraries/ArduinoCore/Release/libArduinoCore.a(WString.o)
attachInterrupt                                   /work/opensource/personal/microcontroller/arduino/ArduinoLibraries/ArduinoCore/Release/libArduinoCore.a(WInterrupts.o)
                                                  ./main.o
buf                                               ./main.o
construction vtable for SeekableInputStream-in-ByteArrayInputStream /work/opensource/personal/microcontroller/arduino/ArduinoLibraries/ArduinoIO/Release/libArduinoIO.a(ByteArrayInputStream.o)
construction vtable for SeekableInputStream-in-ExternalEepromInputStream /work/opensource/personal/microcontroller/arduino/ArduinoLibraries/ArduinoIO/Release/libArduinoIO.a(ExternalEepromInputStream.o)
construction vtable for SeekableOutputStream-in-ByteArrayOutputStream /work/opensource/personal/microcontroller/arduino/ArduinoLibraries/ArduinoIO/Release/libArduinoIO.a(ByteArrayOutputStream.o)
construction vtable for SeekableOutputStream-in-ExternalEepromOutputStream /work/opensource/personal/microcontroller/arduino/ArduinoLibraries/ArduinoIO/Release/libArduinoIO.a(ExternalEepromOutputStream.o)
delay                                             /work/opensource/personal/microcontroller/arduino/ArduinoLibraries/ArduinoCore/Release/libArduinoCore.a(wiring.o)
                                                  /work/opensource/personal/microcontroller/arduino/ArduinoLibraries/ArduinoDevice/Release/libArduinoDevice.a(EepromBasedWiredDevice.o)
delayMicroseconds                                 /work/opensource/personal/microcontroller/arduino/ArduinoLibraries/ArduinoCore/Release/libArduinoCore.a(wiring.o)
                                                  /work/opensource/personal/microcontroller/arduino/ArduinoLibraries/ArduinoDevice/Release/libArduinoDevice.a(EepromBasedWiredDevice.o)
                                                  /work/opensource/personal/microcontroller/arduino/ArduinoLibraries/ArduinoDevice/Release/libArduinoDevice.a(RegisterBasedWiredDevice.o)
detachInterrupt                                   /work/opensource/personal/microcontroller/arduino/ArduinoLibraries/ArduinoCore/Release/libArduinoCore.a(WInterrupts.o)
                                                  ./main.o
device                                            ./main.o
digitalRead                                       /work/opensource/personal/microcontroller/arduino/ArduinoLibraries/ArduinoCore/Release/libArduinoCore.a(wiring_digital.o)
digitalWrite                                      /work/opensource/personal/microcontroller/arduino/ArduinoLibraries/ArduinoCore/Release/libArduinoCore.a(wiring_digital.o)
                                                  /work/opensource/personal/microcontroller/arduino/ArduinoLibraries/ArduinoCore/Release/libArduinoCore.a(twi.o)
                                                  /work/opensource/personal/microcontroller/arduino/ArduinoLibraries/ArduinoCore/Release/libArduinoCore.a(SoftwareSerial.o)
                                                  /work/opensource/personal/microcontroller/arduino/ArduinoLibraries/ArduinoMessagingProtocol/Release/libArduinoMessagingProtocol.a(Notifier.o)
digital_pin_to_bit_mask_PGM                       /work/opensource/personal/microcontroller/arduino/ArduinoLibraries/ArduinoCore/Release/libArduinoCore.a(wiring_digital.o)
                                                  /work/opensource/personal/microcontroller/arduino/ArduinoLibraries/ArduinoCore/Release/libArduinoCore.a(SoftwareSerial.o)
digital_pin_to_port_PGM                           /work/opensource/personal/microcontroller/arduino/ArduinoLibraries/ArduinoCore/Release/libArduinoCore.a(wiring_digital.o)
                                                  /work/opensource/personal/microcontroller/arduino/ArduinoLibraries/ArduinoCore/Release/libArduinoCore.a(SoftwareSerial.o)
digital_pin_to_timer_PGM                          /work/opensource/personal/microcontroller/arduino/ArduinoLibraries/ArduinoCore/Release/libArduinoCore.a(wiring_digital.o)
dtoa_prf                                          /usr/lib/gcc/avr/4.8.1/../../../avr/lib/avr5/libc.a(dtoa_prf.o)
                                                  /usr/lib/gcc/avr/4.8.1/../../../avr/lib/avr5/libc.a(dtostrf.o)
dtostrf                                           /usr/lib/gcc/avr/4.8.1/../../../avr/lib/avr5/libc.a(dtostrf.o)
                                                  /work/opensource/personal/microcontroller/arduino/ArduinoLibraries/ArduinoCore/Release/libArduinoCore.a(WString.o)
eeprom                                            ./main.o
eepromDataInput                                   ./main.o
eepromDataOutput                                  ./main.o
eepromInputStream                                 ./main.o
eepromOutputStream                                ./main.o
errno                                             /usr/lib/gcc/avr/4.8.1/../../../avr/lib/avr5/libc.a(errno.o)
                                                  /usr/lib/gcc/avr/4.8.1/../../../avr/lib/avr5/libc.a(strtod.o)
exit                                              /usr/lib/gcc/avr/4.8.1/avr5/libgcc.a(_exit.o)
                                                  /usr/lib/gcc/avr/4.8.1/../../../avr/lib/avr5/crtm328p.o
free                                              /usr/lib/gcc/avr/4.8.1/../../../avr/lib/avr5/libc.a(malloc.o)
                                                  /usr/lib/gcc/avr/4.8.1/../../../avr/lib/avr5/libc.a(realloc.o)
                                                  /work/opensource/personal/microcontroller/arduino/ArduinoLibraries/ArduinoCore/Release/libArduinoCore.a(new.o)
                                                  /work/opensource/personal/microcontroller/arduino/ArduinoLibraries/ArduinoCore/Release/libArduinoCore.a(WString.o)
init                                              /work/opensource/personal/microcontroller/arduino/ArduinoLibraries/ArduinoCore/Release/libArduinoCore.a(wiring.o)
                                                  ./main.o
isr()                                             ./main.o
isspace                                           /usr/lib/gcc/avr/4.8.1/../../../avr/lib/avr5/libc.a(isspace.o)
                                                  /usr/lib/gcc/avr/4.8.1/../../../avr/lib/avr5/libc.a(strtod.o)
                                                  /work/opensource/personal/microcontroller/arduino/ArduinoLibraries/ArduinoCore/Release/libArduinoCore.a(WString.o)
itoa                                              /usr/lib/gcc/avr/4.8.1/../../../avr/lib/avr5/libc.a(itoa.o)
                                                  /work/opensource/personal/microcontroller/arduino/ArduinoLibraries/ArduinoCore/Release/libArduinoCore.a(WString.o)
loop                                              ./main.o
ltoa                                              /usr/lib/gcc/avr/4.8.1/../../../avr/lib/avr5/libc.a(ltoa.o)
                                                  /work/opensource/personal/microcontroller/arduino/ArduinoLibraries/ArduinoCore/Release/libArduinoCore.a(WString.o)
main                                              ./main.o
                                                  /usr/lib/gcc/avr/4.8.1/../../../avr/lib/avr5/crtm328p.o
malloc                                            /usr/lib/gcc/avr/4.8.1/../../../avr/lib/avr5/libc.a(malloc.o)
                                                  /usr/lib/gcc/avr/4.8.1/../../../avr/lib/avr5/libc.a(realloc.o)
                                                  /work/opensource/personal/microcontroller/arduino/ArduinoLibraries/ArduinoCore/Release/libArduinoCore.a(new.o)
memcpy                                            /usr/lib/gcc/avr/4.8.1/../../../avr/lib/avr5/libc.a(memcpy.o)
                                                  /usr/lib/gcc/avr/4.8.1/../../../avr/lib/avr5/libc.a(memmove.o)
                                                  /usr/lib/gcc/avr/4.8.1/../../../avr/lib/avr5/libc.a(realloc.o)
                                                  /work/opensource/personal/microcontroller/arduino/ArduinoLibraries/ArduinoCore/Release/libArduinoCore.a(WString.o)
                                                  /work/opensource/personal/microcontroller/arduino/ArduinoLibraries/ArduinoMessagingProtocol/Release/libArduinoMessagingProtocol.a(MessageParser.o)
memmove                                           /usr/lib/gcc/avr/4.8.1/../../../avr/lib/avr5/libc.a(memmove.o)
                                                  /work/opensource/personal/microcontroller/arduino/ArduinoLibraries/ArduinoCore/Release/libArduinoCore.a(WString.o)
message                                           ./main.o
micros                                            /work/opensource/personal/microcontroller/arduino/ArduinoLibraries/ArduinoCore/Release/libArduinoCore.a(wiring.o)
millis                                            /work/opensource/personal/microcontroller/arduino/ArduinoLibraries/ArduinoCore/Release/libArduinoCore.a(wiring.o)
                                                  /work/opensource/personal/microcontroller/arduino/ArduinoLibraries/ArduinoCore/Release/libArduinoCore.a(Stream.o)
                                                  /work/opensource/personal/microcontroller/arduino/ArduinoLibraries/ArduinoMessagingProtocol/Release/libArduinoMessagingProtocol.a(RemoteDevice.o)
operator delete(void*)                            /work/opensource/personal/microcontroller/arduino/ArduinoLibraries/ArduinoCore/Release/libArduinoCore.a(new.o)
                                                  /work/opensource/personal/microcontroller/arduino/ArduinoLibraries/ArduinoDevice/Release/libArduinoDevice.a(EepromBasedWiredDevice.o)
                                                  /work/opensource/personal/microcontroller/arduino/ArduinoLibraries/ArduinoMemoryDriver/Release/libArduinoMemoryDriver.a(External24cl256Eeprom.o)
                                                  /work/opensource/personal/microcontroller/arduino/ArduinoLibraries/ArduinoMemoryDriver/Release/libArduinoMemoryDriver.a(ExternalEeprom.o)
                                                  /work/opensource/personal/microcontroller/arduino/ArduinoLibraries/ArduinoIO/Release/libArduinoIO.a(ByteArrayOutputStream.o)
                                                  /work/opensource/personal/microcontroller/arduino/ArduinoLibraries/ArduinoMessagingProtocol/Release/libArduinoMessagingProtocol.a(RemoteDevice.o)
                                                  ./main.o
operator delete[](void*)                          /work/opensource/personal/microcontroller/arduino/ArduinoLibraries/ArduinoCore/Release/libArduinoCore.a(new.o)
operator new(unsigned int)                        /work/opensource/personal/microcontroller/arduino/ArduinoLibraries/ArduinoCore/Release/libArduinoCore.a(new.o)
operator new[](unsigned int)                      /work/opensource/personal/microcontroller/arduino/ArduinoLibraries/ArduinoCore/Release/libArduinoCore.a(new.o)
operator+(StringSumHelper const&, String const&)  /work/opensource/personal/microcontroller/arduino/ArduinoLibraries/ArduinoCore/Release/libArduinoCore.a(WString.o)
operator+(StringSumHelper const&, __FlashStringHelper const*) /work/opensource/personal/microcontroller/arduino/ArduinoLibraries/ArduinoCore/Release/libArduinoCore.a(WString.o)
operator+(StringSumHelper const&, char const*)    /work/opensource/personal/microcontroller/arduino/ArduinoLibraries/ArduinoCore/Release/libArduinoCore.a(WString.o)
operator+(StringSumHelper const&, char)           /work/opensource/personal/microcontroller/arduino/ArduinoLibraries/ArduinoCore/Release/libArduinoCore.a(WString.o)
operator+(StringSumHelper const&, double)         /work/opensource/personal/microcontroller/arduino/ArduinoLibraries/ArduinoCore/Release/libArduinoCore.a(WString.o)
operator+(StringSumHelper const&, float)          /work/opensource/personal/microcontroller/arduino/ArduinoLibraries/ArduinoCore/Release/libArduinoCore.a(WString.o)
operator+(StringSumHelper const&, int)            /work/opensource/personal/microcontroller/arduino/ArduinoLibraries/ArduinoCore/Release/libArduinoCore.a(WString.o)
operator+(StringSumHelper const&, long)           /work/opensource/personal/microcontroller/arduino/ArduinoLibraries/ArduinoCore/Release/libArduinoCore.a(WString.o)
operator+(StringSumHelper const&, unsigned char)  /work/opensource/personal/microcontroller/arduino/ArduinoLibraries/ArduinoCore/Release/libArduinoCore.a(WString.o)
operator+(StringSumHelper const&, unsigned int)   /work/opensource/personal/microcontroller/arduino/ArduinoLibraries/ArduinoCore/Release/libArduinoCore.a(WString.o)
operator+(StringSumHelper const&, unsigned long)  /work/opensource/personal/microcontroller/arduino/ArduinoLibraries/ArduinoCore/Release/libArduinoCore.a(WString.o)
parser                                            ./main.o
parserBuffer                                      ./main.o
payloadBuffer                                     ./main.o
payloadDataInput                                  ./main.o
payloadDataOutput                                 ./main.o
payloadInputStream                                ./main.o
payloadOutputStream                               ./main.o
pinMode                                           /work/opensource/personal/microcontroller/arduino/ArduinoLibraries/ArduinoCore/Release/libArduinoCore.a(wiring_digital.o)
                                                  /work/opensource/personal/microcontroller/arduino/ArduinoLibraries/ArduinoCore/Release/libArduinoCore.a(SoftwareSerial.o)
                                                  ./main.o
port_to_input_PGM                                 /work/opensource/personal/microcontroller/arduino/ArduinoLibraries/ArduinoCore/Release/libArduinoCore.a(wiring_digital.o)
                                                  /work/opensource/personal/microcontroller/arduino/ArduinoLibraries/ArduinoCore/Release/libArduinoCore.a(SoftwareSerial.o)
port_to_mode_PGM                                  /work/opensource/personal/microcontroller/arduino/ArduinoLibraries/ArduinoCore/Release/libArduinoCore.a(wiring_digital.o)
port_to_output_PGM                                /work/opensource/personal/microcontroller/arduino/ArduinoLibraries/ArduinoCore/Release/libArduinoCore.a(wiring_digital.o)
                                                  /work/opensource/personal/microcontroller/arduino/ArduinoLibraries/ArduinoCore/Release/libArduinoCore.a(SoftwareSerial.o)
processReceivedMessage()                          ./main.o
processSettings(unsigned char, unsigned char)     ./main.o
realloc                                           /usr/lib/gcc/avr/4.8.1/../../../avr/lib/avr5/libc.a(realloc.o)
                                                  /work/opensource/personal/microcontroller/arduino/ArduinoLibraries/ArduinoCore/Release/libArduinoCore.a(WString.o)
serial                                            ./main.o
serialEvent()                                     /work/opensource/personal/microcontroller/arduino/ArduinoLibraries/ArduinoCore/Release/libArduinoCore.a(HardwareSerial.o)
serialEventRun()                                  /work/opensource/personal/microcontroller/arduino/ArduinoLibraries/ArduinoCore/Release/libArduinoCore.a(HardwareSerial.o)
                                                  ./main.o
settings                                          ./main.o
setup                                             ./main.o
setupAccelerometer()                              ./main.o
softwareSerialInputStream                         ./main.o
softwareSerialOutputStream                        ./main.o
strchr                                            /usr/lib/gcc/avr/4.8.1/../../../avr/lib/avr5/libc.a(strchr.o)
                                                  /work/opensource/personal/microcontroller/arduino/ArduinoLibraries/ArduinoCore/Release/libArduinoCore.a(WString.o)
strcmp                                            /usr/lib/gcc/avr/4.8.1/../../../avr/lib/avr5/libc.a(strcmp.o)
                                                  /work/opensource/personal/microcontroller/arduino/ArduinoLibraries/ArduinoCore/Release/libArduinoCore.a(WString.o)
strcpy                                            /usr/lib/gcc/avr/4.8.1/../../../avr/lib/avr5/libc.a(strcpy.o)
                                                  /work/opensource/personal/microcontroller/arduino/ArduinoLibraries/ArduinoCore/Release/libArduinoCore.a(WString.o)
strcpy_P                                          /usr/lib/gcc/avr/4.8.1/../../../avr/lib/avr5/libc.a(strcpy_P.o)
                                                  /work/opensource/personal/microcontroller/arduino/ArduinoLibraries/ArduinoCore/Release/libArduinoCore.a(WString.o)
strncasecmp_P                                     /usr/lib/gcc/avr/4.8.1/../../../avr/lib/avr5/libc.a(strncasecmp_P.o)
                                                  /usr/lib/gcc/avr/4.8.1/../../../avr/lib/avr5/libc.a(strtod.o)
strncmp                                           /usr/lib/gcc/avr/4.8.1/../../../avr/lib/avr5/libc.a(strncmp.o)
                                                  /work/opensource/personal/microcontroller/arduino/ArduinoLibraries/ArduinoCore/Release/libArduinoCore.a(WString.o)
strncpy                                           /usr/lib/gcc/avr/4.8.1/../../../avr/lib/avr5/libc.a(strncpy.o)
                                                  /work/opensource/personal/microcontroller/arduino/ArduinoLibraries/ArduinoCore/Release/libArduinoCore.a(WString.o)
strrchr                                           /usr/lib/gcc/avr/4.8.1/../../../avr/lib/avr5/libc.a(strrchr.o)
                                                  /work/opensource/personal/microcontroller/arduino/ArduinoLibraries/ArduinoCore/Release/libArduinoCore.a(WString.o)
strrev                                            /usr/lib/gcc/avr/4.8.1/../../../avr/lib/avr5/libc.a(strrev.o)
                                                  /usr/lib/gcc/avr/4.8.1/../../../avr/lib/avr5/libc.a(utoa_ncheck.o)
                                                  /usr/lib/gcc/avr/4.8.1/../../../avr/lib/avr5/libc.a(ultoa_ncheck.o)
strstr                                            /usr/lib/gcc/avr/4.8.1/../../../avr/lib/avr5/libc.a(strstr.o)
                                                  /work/opensource/personal/microcontroller/arduino/ArduinoLibraries/ArduinoCore/Release/libArduinoCore.a(WString.o)
strtod                                            /usr/lib/gcc/avr/4.8.1/../../../avr/lib/avr5/libc.a(strtod.o)
                                                  /usr/lib/gcc/avr/4.8.1/../../../avr/lib/avr5/libc.a(atof.o)
timer0_millis                                     /work/opensource/personal/microcontroller/arduino/ArduinoLibraries/ArduinoCore/Release/libArduinoCore.a(wiring.o)
timer0_overflow_count                             /work/opensource/personal/microcontroller/arduino/ArduinoLibraries/ArduinoCore/Release/libArduinoCore.a(wiring.o)
tolower                                           /usr/lib/gcc/avr/4.8.1/../../../avr/lib/avr5/libc.a(tolower.o)
                                                  /work/opensource/personal/microcontroller/arduino/ArduinoLibraries/ArduinoCore/Release/libArduinoCore.a(WString.o)
toupper                                           /usr/lib/gcc/avr/4.8.1/../../../avr/lib/avr5/libc.a(toupper.o)
                                                  /work/opensource/personal/microcontroller/arduino/ArduinoLibraries/ArduinoCore/Release/libArduinoCore.a(WString.o)
triggered                                         ./main.o
twi_attachSlaveRxEvent                            /work/opensource/personal/microcontroller/arduino/ArduinoLibraries/ArduinoCore/Release/libArduinoCore.a(twi.o)
                                                  /work/opensource/personal/microcontroller/arduino/ArduinoLibraries/ArduinoCore/Release/libArduinoCore.a(Wire.o)
twi_attachSlaveTxEvent                            /work/opensource/personal/microcontroller/arduino/ArduinoLibraries/ArduinoCore/Release/libArduinoCore.a(twi.o)
                                                  /work/opensource/personal/microcontroller/arduino/ArduinoLibraries/ArduinoCore/Release/libArduinoCore.a(Wire.o)
twi_disable                                       /work/opensource/personal/microcontroller/arduino/ArduinoLibraries/ArduinoCore/Release/libArduinoCore.a(twi.o)
                                                  /work/opensource/personal/microcontroller/arduino/ArduinoLibraries/ArduinoCore/Release/libArduinoCore.a(Wire.o)
twi_init                                          /work/opensource/personal/microcontroller/arduino/ArduinoLibraries/ArduinoCore/Release/libArduinoCore.a(twi.o)
                                                  /work/opensource/personal/microcontroller/arduino/ArduinoLibraries/ArduinoCore/Release/libArduinoCore.a(Wire.o)
twi_readFrom                                      /work/opensource/personal/microcontroller/arduino/ArduinoLibraries/ArduinoCore/Release/libArduinoCore.a(twi.o)
                                                  /work/opensource/personal/microcontroller/arduino/ArduinoLibraries/ArduinoCore/Release/libArduinoCore.a(Wire.o)
twi_releaseBus                                    /work/opensource/personal/microcontroller/arduino/ArduinoLibraries/ArduinoCore/Release/libArduinoCore.a(twi.o)
twi_reply                                         /work/opensource/personal/microcontroller/arduino/ArduinoLibraries/ArduinoCore/Release/libArduinoCore.a(twi.o)
twi_setAddress                                    /work/opensource/personal/microcontroller/arduino/ArduinoLibraries/ArduinoCore/Release/libArduinoCore.a(twi.o)
                                                  /work/opensource/personal/microcontroller/arduino/ArduinoLibraries/ArduinoCore/Release/libArduinoCore.a(Wire.o)
twi_setFrequency                                  /work/opensource/personal/microcontroller/arduino/ArduinoLibraries/ArduinoCore/Release/libArduinoCore.a(twi.o)
                                                  /work/opensource/personal/microcontroller/arduino/ArduinoLibraries/ArduinoCore/Release/libArduinoCore.a(Wire.o)
twi_stop                                          /work/opensource/personal/microcontroller/arduino/ArduinoLibraries/ArduinoCore/Release/libArduinoCore.a(twi.o)
twi_transmit                                      /work/opensource/personal/microcontroller/arduino/ArduinoLibraries/ArduinoCore/Release/libArduinoCore.a(twi.o)
                                                  /work/opensource/personal/microcontroller/arduino/ArduinoLibraries/ArduinoCore/Release/libArduinoCore.a(Wire.o)
twi_writeTo                                       /work/opensource/personal/microcontroller/arduino/ArduinoLibraries/ArduinoCore/Release/libArduinoCore.a(twi.o)
                                                  /work/opensource/personal/microcontroller/arduino/ArduinoLibraries/ArduinoCore/Release/libArduinoCore.a(Wire.o)
ultoa                                             /usr/lib/gcc/avr/4.8.1/../../../avr/lib/avr5/libc.a(ultoa.o)
                                                  /work/opensource/personal/microcontroller/arduino/ArduinoLibraries/ArduinoCore/Release/libArduinoCore.a(WString.o)
utoa                                              /usr/lib/gcc/avr/4.8.1/../../../avr/lib/avr5/libc.a(utoa.o)
                                                  /work/opensource/personal/microcontroller/arduino/ArduinoLibraries/ArduinoCore/Release/libArduinoCore.a(WString.o)
virtual thunk to ByteArrayInputStream::available() /work/opensource/personal/microcontroller/arduino/ArduinoLibraries/ArduinoIO/Release/libArduinoIO.a(ByteArrayInputStream.o)
virtual thunk to ByteArrayInputStream::mark()     /work/opensource/personal/microcontroller/arduino/ArduinoLibraries/ArduinoIO/Release/libArduinoIO.a(ByteArrayInputStream.o)
virtual thunk to ByteArrayInputStream::markSupported() /work/opensource/personal/microcontroller/arduino/ArduinoLibraries/ArduinoIO/Release/libArduinoIO.a(ByteArrayInputStream.o)
virtual thunk to ByteArrayInputStream::read()     /work/opensource/personal/microcontroller/arduino/ArduinoLibraries/ArduinoIO/Release/libArduinoIO.a(ByteArrayInputStream.o)
virtual thunk to ByteArrayInputStream::reset()    /work/opensource/personal/microcontroller/arduino/ArduinoLibraries/ArduinoIO/Release/libArduinoIO.a(ByteArrayInputStream.o)
virtual thunk to ByteArrayInputStream::seek(unsigned int) /work/opensource/personal/microcontroller/arduino/ArduinoLibraries/ArduinoIO/Release/libArduinoIO.a(ByteArrayInputStream.o)
virtual thunk to ByteArrayOutputStream::mark()    /work/opensource/personal/microcontroller/arduino/ArduinoLibraries/ArduinoIO/Release/libArduinoIO.a(ByteArrayOutputStream.o)
virtual thunk to ByteArrayOutputStream::markSupported() /work/opensource/personal/microcontroller/arduino/ArduinoLibraries/ArduinoIO/Release/libArduinoIO.a(ByteArrayOutputStream.o)
virtual thunk to ByteArrayOutputStream::reset()   /work/opensource/personal/microcontroller/arduino/ArduinoLibraries/ArduinoIO/Release/libArduinoIO.a(ByteArrayOutputStream.o)
virtual thunk to ByteArrayOutputStream::seek(unsigned int) /work/opensource/personal/microcontroller/arduino/ArduinoLibraries/ArduinoIO/Release/libArduinoIO.a(ByteArrayOutputStream.o)
virtual thunk to ByteArrayOutputStream::write(unsigned char) /work/opensource/personal/microcontroller/arduino/ArduinoLibraries/ArduinoIO/Release/libArduinoIO.a(ByteArrayOutputStream.o)
virtual thunk to ExternalEepromInputStream::available() /work/opensource/personal/microcontroller/arduino/ArduinoLibraries/ArduinoIO/Release/libArduinoIO.a(ExternalEepromInputStream.o)
virtual thunk to ExternalEepromInputStream::mark() /work/opensource/personal/microcontroller/arduino/ArduinoLibraries/ArduinoIO/Release/libArduinoIO.a(ExternalEepromInputStream.o)
virtual thunk to ExternalEepromInputStream::markSupported() /work/opensource/personal/microcontroller/arduino/ArduinoLibraries/ArduinoIO/Release/libArduinoIO.a(ExternalEepromInputStream.o)
virtual thunk to ExternalEepromInputStream::read() /work/opensource/personal/microcontroller/arduino/ArduinoLibraries/ArduinoIO/Release/libArduinoIO.a(ExternalEepromInputStream.o)
virtual thunk to ExternalEepromInputStream::read(unsigned char*, int, int) /work/opensource/personal/microcontroller/arduino/ArduinoLibraries/ArduinoIO/Release/libArduinoIO.a(ExternalEepromInputStream.o)
virtual thunk to ExternalEepromInputStream::reset() /work/opensource/personal/microcontroller/arduino/ArduinoLibraries/ArduinoIO/Release/libArduinoIO.a(ExternalEepromInputStream.o)
virtual thunk to ExternalEepromInputStream::seek(unsigned int) /work/opensource/personal/microcontroller/arduino/ArduinoLibraries/ArduinoIO/Release/libArduinoIO.a(ExternalEepromInputStream.o)
virtual thunk to ExternalEepromOutputStream::mark() /work/opensource/personal/microcontroller/arduino/ArduinoLibraries/ArduinoIO/Release/libArduinoIO.a(ExternalEepromOutputStream.o)
virtual thunk to ExternalEepromOutputStream::markSupported() /work/opensource/personal/microcontroller/arduino/ArduinoLibraries/ArduinoIO/Release/libArduinoIO.a(ExternalEepromOutputStream.o)
virtual thunk to ExternalEepromOutputStream::reset() /work/opensource/personal/microcontroller/arduino/ArduinoLibraries/ArduinoIO/Release/libArduinoIO.a(ExternalEepromOutputStream.o)
virtual thunk to ExternalEepromOutputStream::seek(unsigned int) /work/opensource/personal/microcontroller/arduino/ArduinoLibraries/ArduinoIO/Release/libArduinoIO.a(ExternalEepromOutputStream.o)
virtual thunk to ExternalEepromOutputStream::write(unsigned char) /work/opensource/personal/microcontroller/arduino/ArduinoLibraries/ArduinoIO/Release/libArduinoIO.a(ExternalEepromOutputStream.o)
virtual thunk to ExternalEepromOutputStream::write(unsigned char*, int, int) /work/opensource/personal/microcontroller/arduino/ArduinoLibraries/ArduinoIO/Release/libArduinoIO.a(ExternalEepromOutputStream.o)
vtable for Accelerometer                          /work/opensource/personal/microcontroller/arduino/ArduinoLibraries/ArduinoAccelerometerDriver/Release/libArduinoAccelerometerSensor.a(AccelerometerMMA8451.o)
vtable for AccelerometerMMA8451                   /work/opensource/personal/microcontroller/arduino/ArduinoLibraries/ArduinoAccelerometerDriver/Release/libArduinoAccelerometerSensor.a(AccelerometerMMA8451.o)
vtable for ByteArrayInputStream                   /work/opensource/personal/microcontroller/arduino/ArduinoLibraries/ArduinoIO/Release/libArduinoIO.a(ByteArrayInputStream.o)
vtable for ByteArrayOutputStream                  /work/opensource/personal/microcontroller/arduino/ArduinoLibraries/ArduinoIO/Release/libArduinoIO.a(ByteArrayOutputStream.o)
                                                  ./main.o
vtable for Closeable                              /work/opensource/personal/microcontroller/arduino/ArduinoLibraries/ArduinoIO/Release/libArduinoIO.a(SoftwareSerialOutputStream.o)
                                                  /work/opensource/personal/microcontroller/arduino/ArduinoLibraries/ArduinoIO/Release/libArduinoIO.a(ByteArrayInputStream.o)
                                                  /work/opensource/personal/microcontroller/arduino/ArduinoLibraries/ArduinoIO/Release/libArduinoIO.a(ByteArrayOutputStream.o)
                                                  /work/opensource/personal/microcontroller/arduino/ArduinoLibraries/ArduinoIO/Release/libArduinoIO.a(ExternalEepromInputStream.o)
                                                  /work/opensource/personal/microcontroller/arduino/ArduinoLibraries/ArduinoIO/Release/libArduinoIO.a(ExternalEepromOutputStream.o)
                                                  /work/opensource/personal/microcontroller/arduino/ArduinoLibraries/ArduinoIO/Release/libArduinoIO.a(SoftwareSerialInputStream.o)
vtable for DataInput                              /work/opensource/personal/microcontroller/arduino/ArduinoLibraries/ArduinoIO/Release/libArduinoIO.a(DataInputStream.o)
vtable for DataInputStream                        /work/opensource/personal/microcontroller/arduino/ArduinoLibraries/ArduinoIO/Release/libArduinoIO.a(DataInputStream.o)
vtable for DataOutput                             /work/opensource/personal/microcontroller/arduino/ArduinoLibraries/ArduinoIO/Release/libArduinoIO.a(DataOutputStream.o)
vtable for DataOutputStream                       /work/opensource/personal/microcontroller/arduino/ArduinoLibraries/ArduinoIO/Release/libArduinoIO.a(DataOutputStream.o)
vtable for EepromBasedWiredDevice                 /work/opensource/personal/microcontroller/arduino/ArduinoLibraries/ArduinoDevice/Release/libArduinoDevice.a(EepromBasedWiredDevice.o)
                                                  /work/opensource/personal/microcontroller/arduino/ArduinoLibraries/ArduinoMemoryDriver/Release/libArduinoMemoryDriver.a(External24cl256Eeprom.o)
                                                  /work/opensource/personal/microcontroller/arduino/ArduinoLibraries/ArduinoMemoryDriver/Release/libArduinoMemoryDriver.a(ExternalEeprom.o)
                                                  ./main.o
vtable for External24cl256Eeprom                  ./main.o
                                                  /work/opensource/personal/microcontroller/arduino/ArduinoLibraries/ArduinoMemoryDriver/Release/libArduinoMemoryDriver.a(External24cl256Eeprom.o)
vtable for ExternalEeprom                         /work/opensource/personal/microcontroller/arduino/ArduinoLibraries/ArduinoMemoryDriver/Release/libArduinoMemoryDriver.a(ExternalEeprom.o)
vtable for ExternalEepromInputStream              /work/opensource/personal/microcontroller/arduino/ArduinoLibraries/ArduinoIO/Release/libArduinoIO.a(ExternalEepromInputStream.o)
vtable for ExternalEepromOutputStream             /work/opensource/personal/microcontroller/arduino/ArduinoLibraries/ArduinoIO/Release/libArduinoIO.a(ExternalEepromOutputStream.o)
vtable for HardwareSerial                         /work/opensource/personal/microcontroller/arduino/ArduinoLibraries/ArduinoCore/Release/libArduinoCore.a(HardwareSerial.o)
                                                  /work/opensource/personal/microcontroller/arduino/ArduinoLibraries/ArduinoCore/Release/libArduinoCore.a(HardwareSerial0.o)
vtable for InputStream                            /work/opensource/personal/microcontroller/arduino/ArduinoLibraries/ArduinoIO/Release/libArduinoIO.a(InputStream.o)
vtable for OutputStream                           /work/opensource/personal/microcontroller/arduino/ArduinoLibraries/ArduinoIO/Release/libArduinoIO.a(OutputStream.o)
                                                  /work/opensource/personal/microcontroller/arduino/ArduinoLibraries/ArduinoIO/Release/libArduinoIO.a(ByteArrayOutputStream.o)
                                                  /work/opensource/personal/microcontroller/arduino/ArduinoLibraries/ArduinoIO/Release/libArduinoIO.a(ExternalEepromOutputStream.o)
vtable for Print                                  /work/opensource/personal/microcontroller/arduino/ArduinoLibraries/ArduinoCore/Release/libArduinoCore.a(Print.o)
vtable for RemoteDevice                           /work/opensource/personal/microcontroller/arduino/ArduinoLibraries/ArduinoMessagingProtocol/Release/libArduinoMessagingProtocol.a(RemoteDevice.o)
vtable for Seekable                               /work/opensource/personal/microcontroller/arduino/ArduinoLibraries/ArduinoIO/Release/libArduinoIO.a(ExternalEepromOutputStream.o)
                                                  /work/opensource/personal/microcontroller/arduino/ArduinoLibraries/ArduinoIO/Release/libArduinoIO.a(ByteArrayInputStream.o)
                                                  /work/opensource/personal/microcontroller/arduino/ArduinoLibraries/ArduinoIO/Release/libArduinoIO.a(ByteArrayOutputStream.o)
                                                  /work/opensource/personal/microcontroller/arduino/ArduinoLibraries/ArduinoIO/Release/libArduinoIO.a(ExternalEepromInputStream.o)
vtable for SerialInputStream                      /work/opensource/personal/microcontroller/arduino/ArduinoLibraries/ArduinoIO/Release/libArduinoIO.a(SoftwareSerialInputStream.o)
vtable for SerialOutputStream                     /work/opensource/personal/microcontroller/arduino/ArduinoLibraries/ArduinoIO/Release/libArduinoIO.a(SoftwareSerialOutputStream.o)
vtable for SoftwareSerial                         /work/opensource/personal/microcontroller/arduino/ArduinoLibraries/ArduinoCore/Release/libArduinoCore.a(SoftwareSerial.o)
vtable for SoftwareSerialInputStream              /work/opensource/personal/microcontroller/arduino/ArduinoLibraries/ArduinoIO/Release/libArduinoIO.a(SoftwareSerialInputStream.o)
vtable for SoftwareSerialOutputStream             /work/opensource/personal/microcontroller/arduino/ArduinoLibraries/ArduinoIO/Release/libArduinoIO.a(SoftwareSerialOutputStream.o)
vtable for Stream                                 /work/opensource/personal/microcontroller/arduino/ArduinoLibraries/ArduinoCore/Release/libArduinoCore.a(Wire.o)
                                                  /work/opensource/personal/microcontroller/arduino/ArduinoLibraries/ArduinoCore/Release/libArduinoCore.a(SoftwareSerial.o)
vtable for TwoWire                                /work/opensource/personal/microcontroller/arduino/ArduinoLibraries/ArduinoCore/Release/libArduinoCore.a(Wire.o)
yield                                             /work/opensource/personal/microcontroller/arduino/ArduinoLibraries/ArduinoCore/Release/libArduinoCore.a(hooks.o)
                                                  /work/opensource/personal/microcontroller/arduino/ArduinoLibraries/ArduinoCore/Release/libArduinoCore.a(wiring.o)
